Component: ARM Compiler 5.06 update 1 (build 61) Tool: armlink [4d35a8]

==============================================================================

Section Cross References

    main.o(i.main) refers to _printf_percent.o(.ARM.Collect$$_printf_percent$$00000000) for _printf_percent
    main.o(i.main) refers to _printf_s.o(.ARM.Collect$$_printf_percent$$00000014) for _printf_s
    main.o(i.main) refers to _printf_str.o(.text) for _printf_str
    main.o(i.main) refers to sysctl.o(i.SysCtlClockSet) for SysCtlClockSet
    main.o(i.main) refers to termio.o(i.TERMIO_Init) for TERMIO_Init
    main.o(i.main) refers to noretval__2printf.o(.text) for __2printf
    main.o(i.main) refers to puts.o(.text) for puts
    main.o(i.main) refers to es_framework.o(i.ES_Initialize) for ES_Initialize
    main.o(i.main) refers to es_framework.o(i.ES_Run) for ES_Run
    eventcheckers.o(i.Check4Keystroke) refers to termio.o(i.kbhit) for kbhit
    eventcheckers.o(i.Check4Keystroke) refers to getc.o(.text) for getc
    eventcheckers.o(i.Check4Keystroke) refers to strategy.o(i.PostStrategySM) for PostStrategySM
    eventcheckers.o(i.Check4Keystroke) refers to retarget.o(.data) for __stdin
    testharnessservice0.o(i.InitTestHarnessService0) refers to es_queue.o(i.ES_InitQueue) for ES_InitQueue
    testharnessservice0.o(i.InitTestHarnessService0) refers to es_shorttimer.o(i.ES_ShortTimerInit) for ES_ShortTimerInit
    testharnessservice0.o(i.InitTestHarnessService0) refers to sysctl.o(i.SysCtlPeripheralEnable) for SysCtlPeripheralEnable
    testharnessservice0.o(i.InitTestHarnessService0) refers to gpio.o(i.GPIOPinTypeGPIOOutput) for GPIOPinTypeGPIOOutput
    testharnessservice0.o(i.InitTestHarnessService0) refers to gpio.o(i.GPIOPinWrite) for GPIOPinWrite
    testharnessservice0.o(i.InitTestHarnessService0) refers to es_framework.o(i.ES_PostToService) for ES_PostToService
    testharnessservice0.o(i.InitTestHarnessService0) refers to testharnessservice0.o(.data) for .data
    testharnessservice0.o(i.InitTestHarnessService0) refers to testharnessservice0.o(.bss) for .bss
    testharnessservice0.o(i.PostTestHarnessService0) refers to es_framework.o(i.ES_PostToService) for ES_PostToService
    testharnessservice0.o(i.PostTestHarnessService0) refers to testharnessservice0.o(.data) for .data
    testharnessservice0.o(i.RunTestHarnessService0) refers to _printf_percent.o(.ARM.Collect$$_printf_percent$$00000000) for _printf_percent
    testharnessservice0.o(i.RunTestHarnessService0) refers to _printf_d.o(.ARM.Collect$$_printf_percent$$00000009) for _printf_d
    testharnessservice0.o(i.RunTestHarnessService0) refers to _printf_dec.o(.text) for _printf_int_dec
    testharnessservice0.o(i.RunTestHarnessService0) refers to _printf_c.o(.ARM.Collect$$_printf_percent$$00000013) for _printf_c
    testharnessservice0.o(i.RunTestHarnessService0) refers to _printf_str.o(.text) for _printf_str
    testharnessservice0.o(i.RunTestHarnessService0) refers to es_timers.o(i.ES_Timer_InitTimer) for ES_Timer_InitTimer
    testharnessservice0.o(i.RunTestHarnessService0) refers to puts.o(.text) for puts
    testharnessservice0.o(i.RunTestHarnessService0) refers to noretval__2printf.o(.text) for __2printf
    testharnessservice0.o(i.RunTestHarnessService0) refers to gpio.o(i.GPIOPinWrite) for GPIOPinWrite
    testharnessservice0.o(i.RunTestHarnessService0) refers to es_queue.o(i.ES_EnQueueLIFO) for ES_EnQueueLIFO
    testharnessservice0.o(i.RunTestHarnessService0) refers to es_framework.o(i.ES_PostToService) for ES_PostToService
    testharnessservice0.o(i.RunTestHarnessService0) refers to es_deferrecall.o(i.ES_RecallEvents) for ES_RecallEvents
    testharnessservice0.o(i.RunTestHarnessService0) refers to es_shorttimer.o(i.ES_ShortTimerStart) for ES_ShortTimerStart
    testharnessservice0.o(i.RunTestHarnessService0) refers to testharnessservice0.o(.data) for .data
    testharnessservice0.o(i.RunTestHarnessService0) refers to testharnessservice0.o(.bss) for .bss
    es_shorttimer.o(i.ES_ShortTimerInit) refers to sysctl.o(i.SysCtlPeripheralEnable) for SysCtlPeripheralEnable
    es_shorttimer.o(i.ES_ShortTimerInit) refers to timer.o(i.TimerConfigure) for TimerConfigure
    es_shorttimer.o(i.ES_ShortTimerInit) refers to timer.o(i.TimerPrescaleSet) for TimerPrescaleSet
    es_shorttimer.o(i.ES_ShortTimerInit) refers to es_shorttimer.o(.data) for .data
    es_shorttimer.o(i.ES_ShortTimerStart) refers to es_shorttimer.o(i.ShortTimerBHandler) for ShortTimerBHandler
    es_shorttimer.o(i.ES_ShortTimerStart) refers to timer.o(i.TimerLoadSet) for TimerLoadSet
    es_shorttimer.o(i.ES_ShortTimerStart) refers to timer.o(i.TimerIntEnable) for TimerIntEnable
    es_shorttimer.o(i.ES_ShortTimerStart) refers to interrupt.o(i.IntEnable) for IntEnable
    es_shorttimer.o(i.ES_ShortTimerStart) refers to timer.o(i.TimerEnable) for TimerEnable
    es_shorttimer.o(i.ES_ShortTimerStart) refers to es_shorttimer.o(i.ShortTimerAHandler) for ShortTimerAHandler
    es_shorttimer.o(i.ShortTimerAHandler) refers to timer.o(i.TimerIntClear) for TimerIntClear
    es_shorttimer.o(i.ShortTimerAHandler) refers to es_framework.o(i.ES_PostToService) for ES_PostToService
    es_shorttimer.o(i.ShortTimerAHandler) refers to es_shorttimer.o(.data) for .data
    es_shorttimer.o(i.ShortTimerBHandler) refers to timer.o(i.TimerIntClear) for TimerIntClear
    es_shorttimer.o(i.ShortTimerBHandler) refers to es_framework.o(i.ES_PostToService) for ES_PostToService
    es_shorttimer.o(i.ShortTimerBHandler) refers to es_shorttimer.o(.data) for .data
    strategy.o(i.InitStrategySM) refers to init_all.o(i.initialize_all) for initialize_all
    strategy.o(i.InitStrategySM) refers to init_all.o(i.getPartySwitch) for getPartySwitch
    strategy.o(i.InitStrategySM) refers to motordrive.o(i.StopMotors) for StopMotors
    strategy.o(i.InitStrategySM) refers to es_timers.o(i.ES_Timer_InitTimer) for ES_Timer_InitTimer
    strategy.o(i.InitStrategySM) refers to init_all.o(i.disableHall) for disableHall
    strategy.o(i.InitStrategySM) refers to es_framework.o(i.ES_PostToService) for ES_PostToService
    strategy.o(i.InitStrategySM) refers to strategy.o(.data) for .data
    strategy.o(i.PostStrategySM) refers to es_framework.o(i.ES_PostToService) for ES_PostToService
    strategy.o(i.PostStrategySM) refers to strategy.o(.data) for .data
    strategy.o(i.QueryStrategySM) refers to strategy.o(.data) for .data
    strategy.o(i.RunStrategySM) refers to _printf_percent.o(.ARM.Collect$$_printf_percent$$00000000) for _printf_percent
    strategy.o(i.RunStrategySM) refers to _printf_d.o(.ARM.Collect$$_printf_percent$$00000009) for _printf_d
    strategy.o(i.RunStrategySM) refers to _printf_dec.o(.text) for _printf_int_dec
    strategy.o(i.RunStrategySM) refers to campaigning.o(i.PostCampaigningSM) for PostCampaigningSM
    strategy.o(i.RunStrategySM) refers to statuspac.o(i.PostStatusPAC) for PostStatusPAC
    strategy.o(i.RunStrategySM) refers to init_all.o(i.setDisplayLED) for setDisplayLED
    strategy.o(i.RunStrategySM) refers to strategy.o(i.PostStrategySM) for PostStrategySM
    strategy.o(i.RunStrategySM) refers to init_all.o(i.enableHall) for enableHall
    strategy.o(i.RunStrategySM) refers to init_all.o(i.turnOffLED) for turnOffLED
    strategy.o(i.RunStrategySM) refers to motordrive.o(i.StopMotors) for StopMotors
    strategy.o(i.RunStrategySM) refers to noretval__2printf.o(.text) for __2printf
    strategy.o(i.RunStrategySM) refers to motordrive.o(i.rotateClockwise) for rotateClockwise
    strategy.o(i.RunStrategySM) refers to init_all.o(i.disableHall) for disableHall
    strategy.o(i.RunStrategySM) refers to es_timers.o(i.ES_Timer_InitTimer) for ES_Timer_InitTimer
    strategy.o(i.RunStrategySM) refers to strategy.o(i.getPollingStationCode) for getPollingStationCode
    strategy.o(i.RunStrategySM) refers to strategy.o(i.processQueryResponse) for processQueryResponse
    strategy.o(i.RunStrategySM) refers to strategy.o(i.getRBN) for getRBN
    strategy.o(i.RunStrategySM) refers to strategy.o(.data) for .data
    strategy.o(i.getMyColor) refers to strategy.o(.data) for .data
    strategy.o(i.getPollingStationCode) refers to init_all.o(i.getPeriodFromHall) for getPeriodFromHall
    strategy.o(i.getPollingStationCode) refers to dflt_clz.o(x$fpl$dfltu) for __aeabi_ui2d
    strategy.o(i.getPollingStationCode) refers to dmul.o(x$fpl$dmul) for __aeabi_dmul
    strategy.o(i.getPollingStationCode) refers to ddiv.o(x$fpl$ddiv) for __aeabi_ddiv
    strategy.o(i.getPollingStationCode) refers to d2f.o(x$fpl$d2f) for __aeabi_d2f
    strategy.o(i.getPollingStationCode) refers to strategy.o(.data) for .data
    strategy.o(i.getRBN) refers to strategy.o(.data) for .data
    strategy.o(i.processQueryResponse) refers to strategy.o(.data) for .data
    statuspac.o(i.InitStatusPAC) refers to statuspac.o(i.InitPins) for InitPins
    statuspac.o(i.InitStatusPAC) refers to statuspac.o(i.StartStatusPAC) for StartStatusPAC
    statuspac.o(i.InitStatusPAC) refers to statuspac.o(.data) for .data
    statuspac.o(i.PostStatusPAC) refers to es_framework.o(i.ES_PostToService) for ES_PostToService
    statuspac.o(i.PostStatusPAC) refers to statuspac.o(.data) for .data
    statuspac.o(i.RunStatusPAC) refers to statuspac.o(i.PostStatusPAC) for PostStatusPAC
    statuspac.o(i.RunStatusPAC) refers to sendbytesstatus.o(i.RunSendBytesStatus) for RunSendBytesStatus
    statuspac.o(i.RunStatusPAC) refers to sendbytesstatus.o(i.StartSendBytesStatus) for StartSendBytesStatus
    statuspac.o(i.RunStatusPAC) refers to statuspac.o(.data) for .data
    statuspac.o(i.RunStatusPAC) refers to statuspac.o(.constdata) for .constdata
    statuspac.o(i.StartStatusPAC) refers to statuspac.o(i.RunStatusPAC) for RunStatusPAC
    statuspac.o(i.StartStatusPAC) refers to statuspac.o(.data) for .data
    statuspac.o(i.querycolor) refers to statuspac.o(.data) for .data
    sendbytesstatus.o(i.ISRStatusPAC) refers to statuspac.o(i.PostStatusPAC) for PostStatusPAC
    sendbytesstatus.o(i.QuerySendBytesStatus) refers to sendbytesstatus.o(.data) for .data
    sendbytesstatus.o(i.RunSendBytesStatus) refers to statuspac.o(i.PostStatusPAC) for PostStatusPAC
    sendbytesstatus.o(i.RunSendBytesStatus) refers to strategy.o(i.getMyColor) for getMyColor
    sendbytesstatus.o(i.RunSendBytesStatus) refers to sendbytesstatus.o(i.ReadFIFO) for ReadFIFO
    sendbytesstatus.o(i.RunSendBytesStatus) refers to es_timers.o(i.ES_Timer_InitTimer) for ES_Timer_InitTimer
    sendbytesstatus.o(i.RunSendBytesStatus) refers to strategy.o(i.PostStrategySM) for PostStrategySM
    sendbytesstatus.o(i.RunSendBytesStatus) refers to campaigning.o(i.PostCampaigningSM) for PostCampaigningSM
    sendbytesstatus.o(i.RunSendBytesStatus) refers to sendbytesstatus.o(.data) for .data
    sendbytesstatus.o(i.RunSendBytesStatus) refers to sendbytesstatus.o(.constdata) for .constdata
    sendbytesstatus.o(i.StartSendBytesStatus) refers to sendbytesstatus.o(i.RunSendBytesStatus) for RunSendBytesStatus
    sendbytesstatus.o(i.StartSendBytesStatus) refers to sendbytesstatus.o(.data) for .data
    init_all.o(i.IRInputCapture) refers to strategy.o(i.getMyColor) for getMyColor
    init_all.o(i.IRInputCapture) refers to campaigning.o(i.PostCampaigningSM) for PostCampaigningSM
    init_all.o(i.IRInputCapture) refers to init_all.o(i.disableIR) for disableIR
    init_all.o(i.IRInputCapture) refers to noretval__2printf.o(.text) for __2printf
    init_all.o(i.IRInputCapture) refers to init_all.o(.data) for .data
    init_all.o(i.ISRHallPC4) refers to motordrive.o(i.UpdatePWM) for UpdatePWM
    init_all.o(i.ISRHallPC4) refers to strategy.o(i.PostStrategySM) for PostStrategySM
    init_all.o(i.ISRHallPC4) refers to init_all.o(i.disableHall) for disableHall
    init_all.o(i.ISRHallPC4) refers to init_all.o(.data) for .data
    init_all.o(i.ISRHallPC4) refers to init_all.o(.bss) for .bss
    init_all.o(i.ISRHallPC6) refers to motordrive.o(i.UpdatePWM) for UpdatePWM
    init_all.o(i.ISRHallPC6) refers to strategy.o(i.PostStrategySM) for PostStrategySM
    init_all.o(i.ISRHallPC6) refers to init_all.o(i.disableHall) for disableHall
    init_all.o(i.ISRHallPC6) refers to init_all.o(.data) for .data
    init_all.o(i.ISRHallPC6) refers to init_all.o(.bss) for .bss
    init_all.o(i.disableHall) refers to init_all.o(.data) for .data
    init_all.o(i.disableIR) refers to init_all.o(.data) for .data
    init_all.o(i.enableHall) refers to init_all.o(.data) for .data
    init_all.o(i.enableHall) refers to init_all.o(.bss) for .bss
    init_all.o(i.enableIR) refers to init_all.o(.data) for .data
    init_all.o(i.getCurrentDirection) refers to init_all.o(.data) for .data
    init_all.o(i.getIRFrequency) refers to init_all.o(.data) for .data
    init_all.o(i.getPeriodFromHall) refers to init_all.o(.data) for .data
    init_all.o(i.getPeriodFromHall) refers to init_all.o(.bss) for .bss
    init_all.o(i.getPulsePeriodA) refers to init_all.o(.data) for .data
    init_all.o(i.getPulsePeriodB) refers to init_all.o(.data) for .data
    init_all.o(i.initialize_all) refers to init_all.o(i.InitializeSPI) for InitializeSPI
    init_all.o(i.initialize_all) refers to init_all.o(i.initHallInputPC4) for initHallInputPC4
    init_all.o(i.initialize_all) refers to init_all.o(i.initHallInputPC6) for initHallInputPC6
    init_all.o(i.initialize_all) refers to pwm10tiva.o(i.PWM_TIVA_Init) for PWM_TIVA_Init
    init_all.o(i.initialize_all) refers to pwm10tiva.o(i.PWM_TIVA_SetFreq) for PWM_TIVA_SetFreq
    init_all.o(i.initialize_all) refers to init_all.o(i.InitIRInputCapture) for InitIRInputCapture
    init_all.o(i.initialize_all) refers to init_all.o(i.InitUltrasonic) for InitUltrasonic
    init_all.o(i.initialize_all) refers to init_all.o(.data) for .data
    capturestation.o(i.QueryCaptureSM) refers to capturestation.o(.data) for .data
    capturestation.o(i.RunCaptureStation) refers to statuspac.o(i.PostStatusPAC) for PostStatusPAC
    capturestation.o(i.RunCaptureStation) refers to capturestation.o(i.ProcessRequestResponse) for ProcessRequestResponse
    capturestation.o(i.RunCaptureStation) refers to es_timers.o(i.ES_Timer_InitTimer) for ES_Timer_InitTimer
    capturestation.o(i.RunCaptureStation) refers to capturestation.o(i.isResponseReady) for isResponseReady
    capturestation.o(i.RunCaptureStation) refers to strategy.o(i.PostStrategySM) for PostStrategySM
    capturestation.o(i.RunCaptureStation) refers to capturestation.o(.data) for .data
    capturestation.o(i.RunCaptureStation) refers to capturestation.o(.constdata) for .constdata
    capturestation.o(i.StartCaptureStation) refers to capturestation.o(i.RunCaptureStation) for RunCaptureStation
    capturestation.o(i.StartCaptureStation) refers to capturestation.o(.data) for .data
    campaigning.o(i.InitCampaigningSM) refers to campaigning.o(i.StartCampaigningSM) for StartCampaigningSM
    campaigning.o(i.InitCampaigningSM) refers to campaigning.o(.data) for .data
    campaigning.o(i.PostCampaigningSM) refers to es_framework.o(i.ES_PostToService) for ES_PostToService
    campaigning.o(i.PostCampaigningSM) refers to campaigning.o(.data) for .data
    campaigning.o(i.RunCampaigningSM) refers to campaigning.o(i.PostCampaigningSM) for PostCampaigningSM
    campaigning.o(i.RunCampaigningSM) refers to motordrive.o(i.UpdatePWM) for UpdatePWM
    campaigning.o(i.RunCampaigningSM) refers to followline.o(i.RunFollowLine) for RunFollowLine
    campaigning.o(i.RunCampaigningSM) refers to followline.o(i.StartFollowLine) for StartFollowLine
    campaigning.o(i.RunCampaigningSM) refers to capturestation.o(i.RunCaptureStation) for RunCaptureStation
    campaigning.o(i.RunCampaigningSM) refers to capturestation.o(i.StartCaptureStation) for StartCaptureStation
    campaigning.o(i.RunCampaigningSM) refers to activateshooter.o(i.RunShooter) for RunShooter
    campaigning.o(i.RunCampaigningSM) refers to activateshooter.o(i.StartShooter) for StartShooter
    campaigning.o(i.RunCampaigningSM) refers to campaigning.o(.data) for .data
    campaigning.o(i.RunCampaigningSM) refers to campaigning.o(.constdata) for .constdata
    campaigning.o(i.StartCampaigningSM) refers to campaigning.o(i.RunCampaigningSM) for RunCampaigningSM
    campaigning.o(i.StartCampaigningSM) refers to campaigning.o(.data) for .data
    admulti.o(i.ADC_MultiInit) refers to admulti.o(.data) for .data
    admulti.o(i.ADC_MultiInit) refers to admulti.o(.constdata) for .constdata
    admulti.o(i.ADC_MultiRead) refers to admulti.o(.data) for .data
    servo.o(i.WriteCameraServo) refers to servo.o(i.ConvertAngle) for ConvertAngle
    servo.o(i.WriteCameraServo) refers to pwm10tiva.o(i.PWM_TIVA_SetDuty) for PWM_TIVA_SetDuty
    servo.o(i.WriteShooterServo) refers to servo.o(i.ConvertAngle) for ConvertAngle
    servo.o(i.WriteShooterServo) refers to pwm10tiva.o(i.PWM_TIVA_SetDuty) for PWM_TIVA_SetDuty
    pwm10tiva.o(i.PWM_TIVA_Init) refers to sysctl.o(i.SysCtlPWMClockSet) for SysCtlPWMClockSet
    pwm10tiva.o(i.PWM_TIVA_Init) refers to sysctl.o(i.SysCtlClockGet) for SysCtlClockGet
    pwm10tiva.o(i.PWM_TIVA_Init) refers to sysctl.o(i.SysCtlPeripheralEnable) for SysCtlPeripheralEnable
    pwm10tiva.o(i.PWM_TIVA_Init) refers to sysctl.o(i.SysCtlPeripheralReady) for SysCtlPeripheralReady
    pwm10tiva.o(i.PWM_TIVA_Init) refers to pwm.o(i.PWMGenConfigure) for PWMGenConfigure
    pwm10tiva.o(i.PWM_TIVA_Init) refers to pwm.o(i.PWMGenPeriodSet) for PWMGenPeriodSet
    pwm10tiva.o(i.PWM_TIVA_Init) refers to pwm10tiva.o(i.PWM_TIVA_SetDuty) for PWM_TIVA_SetDuty
    pwm10tiva.o(i.PWM_TIVA_Init) refers to pwm.o(i.PWMGenEnable) for PWMGenEnable
    pwm10tiva.o(i.PWM_TIVA_Init) refers to pwm.o(i.PWMSyncUpdate) for PWMSyncUpdate
    pwm10tiva.o(i.PWM_TIVA_Init) refers to gpio.o(i.GPIOPinConfigure) for GPIOPinConfigure
    pwm10tiva.o(i.PWM_TIVA_Init) refers to gpio.o(i.GPIOPinTypePWM) for GPIOPinTypePWM
    pwm10tiva.o(i.PWM_TIVA_Init) refers to pwm.o(i.PWMOutputState) for PWMOutputState
    pwm10tiva.o(i.PWM_TIVA_Init) refers to pwm10tiva.o(.data) for .data
    pwm10tiva.o(i.PWM_TIVA_Init) refers to pwm10tiva.o(.bss) for .bss
    pwm10tiva.o(i.PWM_TIVA_Init) refers to pwm10tiva.o(.constdata) for .constdata
    pwm10tiva.o(i.PWM_TIVA_SetDuty) refers to pwm.o(i.PWMPulseWidthSet) for PWMPulseWidthSet
    pwm10tiva.o(i.PWM_TIVA_SetDuty) refers to pwm10tiva.o(.data) for .data
    pwm10tiva.o(i.PWM_TIVA_SetDuty) refers to pwm10tiva.o(.bss) for .bss
    pwm10tiva.o(i.PWM_TIVA_SetDuty) refers to pwm10tiva.o(.constdata) for .constdata
    pwm10tiva.o(i.PWM_TIVA_SetFreq) refers to sysctl.o(i.SysCtlClockGet) for SysCtlClockGet
    pwm10tiva.o(i.PWM_TIVA_SetFreq) refers to pwm10tiva.o(i.PWM_TIVA_SetPeriod) for PWM_TIVA_SetPeriod
    pwm10tiva.o(i.PWM_TIVA_SetFreq) refers to pwm10tiva.o(.data) for .data
    pwm10tiva.o(i.PWM_TIVA_SetFreq) refers to pwm10tiva.o(.bss) for .bss
    pwm10tiva.o(i.PWM_TIVA_SetPeriod) refers to pwm.o(i.PWMGenPeriodSet) for PWMGenPeriodSet
    pwm10tiva.o(i.PWM_TIVA_SetPeriod) refers to pwm10tiva.o(i.PWM_TIVA_SetDuty) for PWM_TIVA_SetDuty
    pwm10tiva.o(i.PWM_TIVA_SetPeriod) refers to pwm10tiva.o(.data) for .data
    pwm10tiva.o(i.PWM_TIVA_SetPeriod) refers to pwm10tiva.o(.bss) for .bss
    pwm10tiva.o(i.PWM_TIVA_SetPeriod) refers to pwm10tiva.o(.constdata) for .constdata
    pwm10tiva.o(i.PWM_TIVA_SetPulseWidth) refers to pwm.o(i.PWMPulseWidthSet) for PWMPulseWidthSet
    pwm10tiva.o(i.PWM_TIVA_SetPulseWidth) refers to pwm10tiva.o(.data) for .data
    pwm10tiva.o(i.PWM_TIVA_SetPulseWidth) refers to pwm10tiva.o(.bss) for .bss
    pwm10tiva.o(i.PWM_TIVA_SetPulseWidth) refers to pwm10tiva.o(.constdata) for .constdata
    motordrive.o(i.StopMotors) refers to motordrive.o(i.UpdatePWM) for UpdatePWM
    motordrive.o(i.UpdatePWM) refers to pwm10tiva.o(i.PWM_TIVA_SetDuty) for PWM_TIVA_SetDuty
    motordrive.o(i.activateLauncherServo) refers to pwm10tiva.o(i.PWM_TIVA_SetDuty) for PWM_TIVA_SetDuty
    motordrive.o(i.rotateClockwise) refers to pwm10tiva.o(i.PWM_TIVA_SetDuty) for PWM_TIVA_SetDuty
    motordrive.o(i.rotateCounterClockwise) refers to pwm10tiva.o(i.PWM_TIVA_SetDuty) for PWM_TIVA_SetDuty
    activateshooter.o(i.QueryShooter) refers to activateshooter.o(.data) for .data
    activateshooter.o(i.RunShooter) refers to motordrive.o(i.UpdatePWM) for UpdatePWM
    activateshooter.o(i.RunShooter) refers to campaigning.o(i.PostCampaigningSM) for PostCampaigningSM
    activateshooter.o(i.RunShooter) refers to es_timers.o(i.ES_Timer_InitTimer) for ES_Timer_InitTimer
    activateshooter.o(i.RunShooter) refers to motordrive.o(i.StopMotors) for StopMotors
    activateshooter.o(i.RunShooter) refers to init_all.o(i.enableIR) for enableIR
    activateshooter.o(i.RunShooter) refers to motordrive.o(i.rotateCounterClockwise) for rotateCounterClockwise
    activateshooter.o(i.RunShooter) refers to es_timers.o(i.ES_Timer_GetTime) for ES_Timer_GetTime
    activateshooter.o(i.RunShooter) refers to init_all.o(i.disableIR) for disableIR
    activateshooter.o(i.RunShooter) refers to cannon.o(i.PostCannon) for PostCannon
    activateshooter.o(i.RunShooter) refers to activateshooter.o(.data) for .data
    activateshooter.o(i.RunShooter) refers to activateshooter.o(.constdata) for .constdata
    activateshooter.o(i.StartShooter) refers to activateshooter.o(i.RunShooter) for RunShooter
    activateshooter.o(i.StartShooter) refers to activateshooter.o(.data) for .data
    cannon.o(i.InitCannon) refers to cannon.o(.data) for .data
    cannon.o(i.PostCannon) refers to es_framework.o(i.ES_PostToService) for ES_PostToService
    cannon.o(i.PostCannon) refers to cannon.o(.data) for .data
    cannon.o(i.RunCannon) refers to es_timers.o(i.ES_Timer_InitTimer) for ES_Timer_InitTimer
    cannon.o(i.RunCannon) refers to strategy.o(i.PostStrategySM) for PostStrategySM
    cannon.o(i.RunCannon) refers to pwm10tiva.o(i.PWM_TIVA_SetDuty) for PWM_TIVA_SetDuty
    cannon.o(i.RunCannon) refers to cannon.o(.data) for .data
    camera.o(i.GetLineCenter) refers to dflt_clz.o(x$fpl$dfltu) for __aeabi_ui2d
    camera.o(i.GetLineCenter) refers to dmul.o(x$fpl$dmul) for __aeabi_dmul
    camera.o(i.GetLineCenter) refers to d2f.o(x$fpl$d2f) for __aeabi_d2f
    camera.o(i.GetLineCenter) refers to camera.o(.data) for .data
    camera.o(i.GetLineCenter) refers to camera.o(.bss) for .bss
    camera.o(i.InitializeCamera) refers to admulti.o(i.ADC_MultiInit) for ADC_MultiInit
    camera.o(i.InitializeCamera) refers to camera.o(i.InitializeTimer) for InitializeTimer
    camera.o(i.InitializeCamera) refers to camera.o(i.PostCamera) for PostCamera
    camera.o(i.InitializeCamera) refers to camera.o(.data) for .data
    camera.o(i.PostCamera) refers to es_framework.o(i.ES_PostToService) for ES_PostToService
    camera.o(i.PostCamera) refers to camera.o(.data) for .data
    camera.o(i.ReturnLineCenter) refers to camera.o(.data) for .data
    camera.o(i.ReturnLineFound) refers to camera.o(.data) for .data
    camera.o(i.RunCamera) refers to servo.o(i.WriteCameraServo) for WriteCameraServo
    camera.o(i.RunCamera) refers to admulti.o(i.ADC_MultiRead) for ADC_MultiRead
    camera.o(i.RunCamera) refers to camera.o(i.GetLineCenter) for GetLineCenter
    camera.o(i.RunCamera) refers to camera.o(.data) for .data
    camera.o(i.RunCamera) refers to camera.o(.bss) for .bss
    camera.o(i.WTimer3AISR) refers to camera.o(i.PostCamera) for PostCamera
    camera.o(i.WTimer3BISR) refers to camera.o(i.PostCamera) for PostCamera
    followline.o(i.DuringStateFollowing) refers to _printf_percent.o(.ARM.Collect$$_printf_percent$$00000000) for _printf_percent
    followline.o(i.DuringStateFollowing) refers to _printf_f.o(.ARM.Collect$$_printf_percent$$00000003) for _printf_f
    followline.o(i.DuringStateFollowing) refers to printf1.o(x$fpl$printf1) for _printf_fp_dec
    followline.o(i.DuringStateFollowing) refers to camera.o(i.ReturnLineCenter) for ReturnLineCenter
    followline.o(i.DuringStateFollowing) refers to camera.o(i.ReturnLineFound) for ReturnLineFound
    followline.o(i.DuringStateFollowing) refers to f2d.o(x$fpl$f2d) for __aeabi_f2d
    followline.o(i.DuringStateFollowing) refers to noretval__2printf.o(.text) for __2printf
    followline.o(i.DuringStateFollowing) refers to dmul.o(x$fpl$dmul) for __aeabi_dmul
    followline.o(i.DuringStateFollowing) refers to d2f.o(x$fpl$d2f) for __aeabi_d2f
    followline.o(i.DuringStateFollowing) refers to dflt_clz.o(x$fpl$dflt) for __aeabi_i2d
    followline.o(i.DuringStateFollowing) refers to daddsub_clz.o(x$fpl$dadd) for __aeabi_dadd
    followline.o(i.DuringStateFollowing) refers to daddsub_clz.o(x$fpl$dsub) for __aeabi_dsub
    followline.o(i.DuringStateFollowing) refers to motordrive.o(i.UpdatePWM) for UpdatePWM
    followline.o(i.DuringStateFollowing) refers to ultrasonic.o(i.querydistance) for querydistance
    followline.o(i.DuringStateFollowing) refers to dleqf.o(x$fpl$dleqf) for __aeabi_cdcmple
    followline.o(i.DuringStateFollowing) refers to daddsub_clz.o(x$fpl$drsb) for __aeabi_drsub
    followline.o(i.DuringStateFollowing) refers to motordrive.o(i.StopMotors) for StopMotors
    followline.o(i.DuringStateFollowing) refers to followline.o(.data) for .data
    followline.o(i.DuringStateFollowing) refers to followline.o(.bss) for .bss
    followline.o(i.DuringStateFollowing) refers to es_timers.o(i.ES_Timer_InitTimer) for ES_Timer_InitTimer
    followline.o(i.QueryFollowLine) refers to followline.o(.data) for .data
    followline.o(i.RunFollowLine) refers to ultrasonic.o(i.querydistance) for querydistance
    followline.o(i.RunFollowLine) refers to camera.o(i.ReturnLineFound) for ReturnLineFound
    followline.o(i.RunFollowLine) refers to noretval__2printf.o(.text) for __2printf
    followline.o(i.RunFollowLine) refers to followline.o(i.DuringStateFollowing) for DuringStateFollowing
    followline.o(i.RunFollowLine) refers to motordrive.o(i.StopMotors) for StopMotors
    followline.o(i.RunFollowLine) refers to motordrive.o(i.UpdatePWM) for UpdatePWM
    followline.o(i.RunFollowLine) refers to es_timers.o(i.ES_Timer_InitTimer) for ES_Timer_InitTimer
    followline.o(i.RunFollowLine) refers to motordrive.o(i.rotateCounterClockwise) for rotateCounterClockwise
    followline.o(i.RunFollowLine) refers to followline.o(.data) for .data
    followline.o(i.RunFollowLine) refers to followline.o(.constdata) for .constdata
    followline.o(i.StartFollowLine) refers to es_timers.o(i.ES_Timer_InitTimer) for ES_Timer_InitTimer
    followline.o(i.StartFollowLine) refers to followline.o(i.RunFollowLine) for RunFollowLine
    followline.o(i.StartFollowLine) refers to followline.o(.data) for .data
    ultrasonic.o(i.ISRUltraResponse) refers to dflt_clz.o(x$fpl$dfltu) for __aeabi_ui2d
    ultrasonic.o(i.ISRUltraResponse) refers to dmul.o(x$fpl$dmul) for __aeabi_dmul
    ultrasonic.o(i.ISRUltraResponse) refers to d2f.o(x$fpl$d2f) for __aeabi_d2f
    ultrasonic.o(i.ISRUltraResponse) refers to ultrasonic.o(i.PostUltra) for PostUltra
    ultrasonic.o(i.ISRUltraResponse) refers to ultrasonic.o(.data) for .data
    ultrasonic.o(i.InitPWM) refers to noretval__2printf.o(.text) for __2printf
    ultrasonic.o(i.InitUltra) refers to ultrasonic.o(i.InitPWM) for InitPWM
    ultrasonic.o(i.InitUltra) refers to ultrasonic.o(i.SetPWM) for SetPWM
    ultrasonic.o(i.InitUltra) refers to es_shorttimer.o(i.ES_ShortTimerInit) for ES_ShortTimerInit
    ultrasonic.o(i.InitUltra) refers to es_timers.o(i.ES_Timer_InitTimer) for ES_Timer_InitTimer
    ultrasonic.o(i.InitUltra) refers to es_framework.o(i.ES_PostToService) for ES_PostToService
    ultrasonic.o(i.InitUltra) refers to ultrasonic.o(.data) for .data
    ultrasonic.o(i.PostUltra) refers to es_framework.o(i.ES_PostToService) for ES_PostToService
    ultrasonic.o(i.PostUltra) refers to ultrasonic.o(.data) for .data
    ultrasonic.o(i.SetPWM) refers to _printf_percent.o(.ARM.Collect$$_printf_percent$$00000000) for _printf_percent
    ultrasonic.o(i.SetPWM) refers to _printf_f.o(.ARM.Collect$$_printf_percent$$00000003) for _printf_f
    ultrasonic.o(i.SetPWM) refers to printf1.o(x$fpl$printf1) for _printf_fp_dec
    ultrasonic.o(i.SetPWM) refers to f2d.o(x$fpl$f2d) for __aeabi_f2d
    ultrasonic.o(i.SetPWM) refers to noretval__2printf.o(.text) for __2printf
    ultrasonic.o(i.querydistance) refers to ultrasonic.o(.data) for .data
    startup_rvmdk.o(STACK) refers (Special) to heapauxi.o(.text) for __use_two_region_memory
    startup_rvmdk.o(HEAP) refers (Special) to heapauxi.o(.text) for __use_two_region_memory
    startup_rvmdk.o(RESET) refers (Special) to heapauxi.o(.text) for __use_two_region_memory
    startup_rvmdk.o(RESET) refers to startup_rvmdk.o(STACK) for StackMem
    startup_rvmdk.o(RESET) refers to es_port.o(i.SysTickIntHandler) for SysTickIntHandler
    startup_rvmdk.o(RESET) refers to sendbytesstatus.o(i.ISRStatusPAC) for ISRStatusPAC
    startup_rvmdk.o(RESET) refers to es_shorttimer.o(i.ShortTimerAHandler) for ShortTimerAHandler
    startup_rvmdk.o(RESET) refers to es_shorttimer.o(i.ShortTimerBHandler) for ShortTimerBHandler
    startup_rvmdk.o(RESET) refers to init_all.o(i.ISRHallPC4) for ISRHallPC4
    startup_rvmdk.o(RESET) refers to init_all.o(i.ISRHallPC6) for ISRHallPC6
    startup_rvmdk.o(RESET) refers to init_all.o(i.IRInputCapture) for IRInputCapture
    startup_rvmdk.o(RESET) refers to camera.o(i.WTimer3AISR) for WTimer3AISR
    startup_rvmdk.o(RESET) refers to camera.o(i.WTimer3BISR) for WTimer3BISR
    startup_rvmdk.o(RESET) refers to ultrasonic.o(i.ISRUltraResponse) for ISRUltraResponse
    startup_rvmdk.o(RESET) refers to __main.o(!!!main) for __main
    startup_rvmdk.o(.text) refers (Special) to heapauxi.o(.text) for __use_two_region_memory
    startup_rvmdk.o(.text) refers to startup_rvmdk.o(HEAP) for HeapMem
    startup_rvmdk.o(.text) refers to startup_rvmdk.o(STACK) for StackMem
    es_checkevents.o(i.ES_CheckUserEvents) refers to es_checkevents.o(.constdata) for .constdata
    es_checkevents.o(.constdata) refers to eventcheckers.o(i.Check4Keystroke) for Check4Keystroke
    es_deferrecall.o(i.ES_RecallEvents) refers to es_queue.o(i.ES_DeQueue) for ES_DeQueue
    es_deferrecall.o(i.ES_RecallEvents) refers to es_framework.o(i.ES_PostToServiceLIFO) for ES_PostToServiceLIFO
    es_framework.o(i.ES_Initialize) refers to es_timers.o(i.ES_Timer_Init) for ES_Timer_Init
    es_framework.o(i.ES_Initialize) refers to es_queue.o(i.ES_InitQueue) for ES_InitQueue
    es_framework.o(i.ES_Initialize) refers to es_framework.o(.constdata) for .constdata
    es_framework.o(i.ES_PostAll) refers to es_queue.o(i.ES_EnQueueFIFO) for ES_EnQueueFIFO
    es_framework.o(i.ES_PostAll) refers to es_framework.o(.constdata) for .constdata
    es_framework.o(i.ES_PostAll) refers to es_lookuptables.o(.constdata) for BitNum2SetMask
    es_framework.o(i.ES_PostAll) refers to es_framework.o(.data) for .data
    es_framework.o(i.ES_PostToService) refers to es_queue.o(i.ES_EnQueueFIFO) for ES_EnQueueFIFO
    es_framework.o(i.ES_PostToService) refers to es_framework.o(.constdata) for .constdata
    es_framework.o(i.ES_PostToService) refers to es_lookuptables.o(.constdata) for BitNum2SetMask
    es_framework.o(i.ES_PostToService) refers to es_framework.o(.data) for .data
    es_framework.o(i.ES_PostToServiceLIFO) refers to es_queue.o(i.ES_EnQueueLIFO) for ES_EnQueueLIFO
    es_framework.o(i.ES_PostToServiceLIFO) refers to es_framework.o(.constdata) for .constdata
    es_framework.o(i.ES_PostToServiceLIFO) refers to es_lookuptables.o(.constdata) for BitNum2SetMask
    es_framework.o(i.ES_PostToServiceLIFO) refers to es_framework.o(.data) for .data
    es_framework.o(i.ES_Run) refers to es_lookuptables.o(i.ES_GetMSBitSet) for ES_GetMSBitSet
    es_framework.o(i.ES_Run) refers to es_queue.o(i.ES_DeQueue) for ES_DeQueue
    es_framework.o(i.ES_Run) refers to es_port.o(i._HW_Process_Pending_Ints) for _HW_Process_Pending_Ints
    es_framework.o(i.ES_Run) refers to es_checkevents.o(i.ES_CheckUserEvents) for ES_CheckUserEvents
    es_framework.o(i.ES_Run) refers to es_framework.o(.data) for .data
    es_framework.o(i.ES_Run) refers to es_framework.o(.constdata) for .constdata
    es_framework.o(i.ES_Run) refers to es_framework.o(.bss) for .bss
    es_framework.o(i.ES_Run) refers to es_lookuptables.o(.constdata) for BitNum2SetMask
    es_framework.o(.constdata) refers to testharnessservice0.o(i.InitTestHarnessService0) for InitTestHarnessService0
    es_framework.o(.constdata) refers to testharnessservice0.o(i.RunTestHarnessService0) for RunTestHarnessService0
    es_framework.o(.constdata) refers to ultrasonic.o(i.InitUltra) for InitUltra
    es_framework.o(.constdata) refers to ultrasonic.o(i.RunUltra) for RunUltra
    es_framework.o(.constdata) refers to statuspac.o(i.InitStatusPAC) for InitStatusPAC
    es_framework.o(.constdata) refers to statuspac.o(i.RunStatusPAC) for RunStatusPAC
    es_framework.o(.constdata) refers to cannon.o(i.InitCannon) for InitCannon
    es_framework.o(.constdata) refers to cannon.o(i.RunCannon) for RunCannon
    es_framework.o(.constdata) refers to campaigning.o(i.InitCampaigningSM) for InitCampaigningSM
    es_framework.o(.constdata) refers to campaigning.o(i.RunCampaigningSM) for RunCampaigningSM
    es_framework.o(.constdata) refers to strategy.o(i.InitStrategySM) for InitStrategySM
    es_framework.o(.constdata) refers to strategy.o(i.RunStrategySM) for RunStrategySM
    es_framework.o(.constdata) refers to camera.o(i.InitializeCamera) for InitializeCamera
    es_framework.o(.constdata) refers to camera.o(i.RunCamera) for RunCamera
    es_framework.o(.constdata) refers to es_framework.o(.bss) for Queue0
    es_framework.o(.constdata) refers to es_framework.o(.bss) for Queue1
    es_framework.o(.constdata) refers to es_framework.o(.bss) for Queue2
    es_framework.o(.constdata) refers to es_framework.o(.bss) for Queue3
    es_framework.o(.constdata) refers to es_framework.o(.bss) for Queue4
    es_framework.o(.constdata) refers to es_framework.o(.bss) for Queue5
    es_framework.o(.constdata) refers to es_framework.o(.bss) for Queue6
    es_lookuptables.o(i.ES_GetMSBitSet) refers to es_lookuptables.o(.constdata) for .constdata
    es_port.o(i.ConsoleInit) refers to sysctl.o(i.SysCtlPeripheralEnable) for SysCtlPeripheralEnable
    es_port.o(i.ConsoleInit) refers to gpio.o(i.GPIOPinConfigure) for GPIOPinConfigure
    es_port.o(i.ConsoleInit) refers to gpio.o(i.GPIOPinTypeUART) for GPIOPinTypeUART
    es_port.o(i.ConsoleInit) refers to uart.o(i.UARTClockSourceSet) for UARTClockSourceSet
    es_port.o(i.ConsoleInit) refers to uartstdio.o(i.UARTStdioConfig) for UARTStdioConfig
    es_port.o(i.SysTickIntHandler) refers to es_port.o(.data) for .data
    es_port.o(i._HW_GetTickCount) refers to es_port.o(.data) for .data
    es_port.o(i._HW_Process_Pending_Ints) refers to es_timers.o(i.ES_Timer_Tick_Resp) for ES_Timer_Tick_Resp
    es_port.o(i._HW_Process_Pending_Ints) refers to es_port.o(.data) for .data
    es_port.o(i._HW_Timer_Init) refers to systick.o(i.SysTickPeriodSet) for SysTickPeriodSet
    es_port.o(i._HW_Timer_Init) refers to systick.o(i.SysTickIntEnable) for SysTickIntEnable
    es_port.o(i._HW_Timer_Init) refers to systick.o(i.SysTickEnable) for SysTickEnable
    es_port.o(i._HW_Timer_Init) refers to interrupt.o(i.IntMasterEnable) for IntMasterEnable
    es_postlist.o(i.ES_PostList00) refers to es_postlist.o(.constdata) for .constdata
    es_postlist.o(.constdata) refers to testharnessservice0.o(i.PostTestHarnessService0) for PostTestHarnessService0
    es_queue.o(i.ES_DeQueue) refers to es_port.o(i.CPUgetPRIMASK_cpsid) for CPUgetPRIMASK_cpsid
    es_queue.o(i.ES_DeQueue) refers to es_port.o(i.CPUsetPRIMASK) for CPUsetPRIMASK
    es_queue.o(i.ES_DeQueue) refers to es_queue.o(.data) for .data
    es_queue.o(i.ES_EnQueueFIFO) refers to es_port.o(i.CPUgetPRIMASK_cpsid) for CPUgetPRIMASK_cpsid
    es_queue.o(i.ES_EnQueueFIFO) refers to es_port.o(i.CPUsetPRIMASK) for CPUsetPRIMASK
    es_queue.o(i.ES_EnQueueFIFO) refers to es_queue.o(.data) for .data
    es_queue.o(i.ES_EnQueueLIFO) refers to es_port.o(i.CPUgetPRIMASK_cpsid) for CPUgetPRIMASK_cpsid
    es_queue.o(i.ES_EnQueueLIFO) refers to es_port.o(i.CPUsetPRIMASK) for CPUsetPRIMASK
    es_queue.o(i.ES_EnQueueLIFO) refers to es_queue.o(.data) for .data
    es_timers.o(i.ES_Timer_GetTime) refers to es_port.o(i._HW_GetTickCount) for _HW_GetTickCount
    es_timers.o(i.ES_Timer_Init) refers to es_port.o(i._HW_Timer_Init) for _HW_Timer_Init
    es_timers.o(i.ES_Timer_InitTimer) refers to es_timers.o(.constdata) for .constdata
    es_timers.o(i.ES_Timer_InitTimer) refers to es_timers.o(.bss) for .bss
    es_timers.o(i.ES_Timer_InitTimer) refers to es_lookuptables.o(.constdata) for BitNum2SetMask
    es_timers.o(i.ES_Timer_InitTimer) refers to es_timers.o(.data) for .data
    es_timers.o(i.ES_Timer_SetTimer) refers to es_timers.o(.constdata) for .constdata
    es_timers.o(i.ES_Timer_SetTimer) refers to es_timers.o(.bss) for .bss
    es_timers.o(i.ES_Timer_StartTimer) refers to es_timers.o(.bss) for .bss
    es_timers.o(i.ES_Timer_StartTimer) refers to es_lookuptables.o(.constdata) for BitNum2SetMask
    es_timers.o(i.ES_Timer_StartTimer) refers to es_timers.o(.data) for .data
    es_timers.o(i.ES_Timer_StopTimer) refers to es_lookuptables.o(.constdata) for BitNum2SetMask
    es_timers.o(i.ES_Timer_StopTimer) refers to es_timers.o(.data) for .data
    es_timers.o(i.ES_Timer_Tick_Resp) refers to es_lookuptables.o(i.ES_GetMSBitSet) for ES_GetMSBitSet
    es_timers.o(i.ES_Timer_Tick_Resp) refers to es_timers.o(.data) for .data
    es_timers.o(i.ES_Timer_Tick_Resp) refers to es_timers.o(.bss) for .bss
    es_timers.o(i.ES_Timer_Tick_Resp) refers to es_lookuptables.o(.constdata) for BitNum2SetMask
    es_timers.o(i.ES_Timer_Tick_Resp) refers to es_timers.o(.constdata) for .constdata
    es_timers.o(.constdata) refers to statuspac.o(i.PostStatusPAC) for PostStatusPAC
    es_timers.o(.constdata) refers to strategy.o(i.PostStrategySM) for PostStrategySM
    es_timers.o(.constdata) refers to campaigning.o(i.PostCampaigningSM) for PostCampaigningSM
    es_timers.o(.constdata) refers to cannon.o(i.PostCannon) for PostCannon
    es_timers.o(.constdata) refers to ultrasonic.o(i.PostUltra) for PostUltra
    retarget.o(i._sys_exit) refers (Special) to use_no_semi.o(.text) for __use_no_semihosting_swi
    retarget.o(i._ttywrch) refers (Special) to use_no_semi.o(.text) for __use_no_semihosting_swi
    retarget.o(i._ttywrch) refers to termio.o(i.TERMIO_PutChar) for TERMIO_PutChar
    retarget.o(i.ferror) refers (Special) to use_no_semi.o(.text) for __use_no_semihosting_swi
    retarget.o(i.fgetc) refers (Special) to use_no_semi.o(.text) for __use_no_semihosting_swi
    retarget.o(i.fgetc) refers to termio.o(i.TERMIO_GetChar) for TERMIO_GetChar
    retarget.o(i.fputc) refers (Special) to use_no_semi.o(.text) for __use_no_semihosting_swi
    retarget.o(i.fputc) refers to termio.o(i.TERMIO_PutChar) for TERMIO_PutChar
    retarget.o(.data) refers (Special) to use_no_semi.o(.text) for __use_no_semihosting_swi
    retarget.o(.data) refers (Special) to use_no_semi.o(.text) for __use_no_semihosting_swi
    termio.o(i.TERMIO_GetChar) refers to uartstdio.o(i.UARTgetc) for UARTgetc
    termio.o(i.TERMIO_Init) refers to sysctl.o(i.SysCtlPeripheralEnable) for SysCtlPeripheralEnable
    termio.o(i.TERMIO_Init) refers to gpio.o(i.GPIOPinConfigure) for GPIOPinConfigure
    termio.o(i.TERMIO_Init) refers to gpio.o(i.GPIOPinTypeUART) for GPIOPinTypeUART
    termio.o(i.TERMIO_Init) refers to uart.o(i.UARTClockSourceSet) for UARTClockSourceSet
    termio.o(i.TERMIO_Init) refers to uartstdio.o(i.UARTStdioConfig) for UARTStdioConfig
    termio.o(i.TERMIO_PutChar) refers to uart.o(i.UARTCharPut) for UARTCharPut
    uartstdio.o(i.UARTStdioConfig) refers to uartstdio.o(.constdata) for .constdata
    uartstdio.o(i.UARTStdioConfig) refers to uartstdio.o(.data) for .data
    uartstdio.o(i.UARTgetc) refers to uartstdio.o(.data) for .data
    uartstdio.o(i.UARTgets) refers to uartstdio.o(i.UARTwrite) for UARTwrite
    uartstdio.o(i.UARTgets) refers to uartstdio.o(.data) for .data
    uartstdio.o(i.UARTprintf) refers to uartstdio.o(i.UARTvprintf) for UARTvprintf
    uartstdio.o(i.UARTvprintf) refers to uartstdio.o(i.UARTwrite) for UARTwrite
    uartstdio.o(i.UARTvprintf) refers to uartstdio.o(.constdata) for .constdata
    uartstdio.o(i.UARTwrite) refers to uartstdio.o(.data) for .data
    uartstdio.o(.constdata) refers to uartstdio.o(.conststring) for .conststring
    gpio.o(i.GPIOIntRegister) refers to interrupt.o(i.IntRegister) for IntRegister
    gpio.o(i.GPIOIntRegister) refers to interrupt.o(i.IntEnable) for IntEnable
    gpio.o(i.GPIOIntRegister) refers to gpio.o(.constdata) for .constdata
    gpio.o(i.GPIOIntUnregister) refers to interrupt.o(i.IntDisable) for IntDisable
    gpio.o(i.GPIOIntUnregister) refers to interrupt.o(i.IntUnregister) for IntUnregister
    gpio.o(i.GPIOIntUnregister) refers to gpio.o(.constdata) for .constdata
    gpio.o(i.GPIOPinConfigure) refers to gpio.o(.constdata) for .constdata
    gpio.o(i.GPIOPinTypeADC) refers to gpio.o(i.GPIODirModeSet) for GPIODirModeSet
    gpio.o(i.GPIOPinTypeADC) refers to gpio.o(i.GPIOPadConfigSet) for GPIOPadConfigSet
    gpio.o(i.GPIOPinTypeCAN) refers to gpio.o(i.GPIODirModeSet) for GPIODirModeSet
    gpio.o(i.GPIOPinTypeCAN) refers to gpio.o(i.GPIOPadConfigSet) for GPIOPadConfigSet
    gpio.o(i.GPIOPinTypeComparator) refers to gpio.o(i.GPIODirModeSet) for GPIODirModeSet
    gpio.o(i.GPIOPinTypeComparator) refers to gpio.o(i.GPIOPadConfigSet) for GPIOPadConfigSet
    gpio.o(i.GPIOPinTypeComparatorOutput) refers to gpio.o(i.GPIODirModeSet) for GPIODirModeSet
    gpio.o(i.GPIOPinTypeComparatorOutput) refers to gpio.o(i.GPIOPadConfigSet) for GPIOPadConfigSet
    gpio.o(i.GPIOPinTypeDIVSCLK) refers to gpio.o(i.GPIODirModeSet) for GPIODirModeSet
    gpio.o(i.GPIOPinTypeDIVSCLK) refers to gpio.o(i.GPIOPadConfigSet) for GPIOPadConfigSet
    gpio.o(i.GPIOPinTypeEPI) refers to gpio.o(i.GPIODirModeSet) for GPIODirModeSet
    gpio.o(i.GPIOPinTypeEPI) refers to gpio.o(i.GPIOPadConfigSet) for GPIOPadConfigSet
    gpio.o(i.GPIOPinTypeEthernetLED) refers to gpio.o(i.GPIODirModeSet) for GPIODirModeSet
    gpio.o(i.GPIOPinTypeEthernetLED) refers to gpio.o(i.GPIOPadConfigSet) for GPIOPadConfigSet
    gpio.o(i.GPIOPinTypeEthernetMII) refers to gpio.o(i.GPIODirModeSet) for GPIODirModeSet
    gpio.o(i.GPIOPinTypeEthernetMII) refers to gpio.o(i.GPIOPadConfigSet) for GPIOPadConfigSet
    gpio.o(i.GPIOPinTypeGPIOInput) refers to gpio.o(i.GPIODirModeSet) for GPIODirModeSet
    gpio.o(i.GPIOPinTypeGPIOInput) refers to gpio.o(i.GPIOPadConfigSet) for GPIOPadConfigSet
    gpio.o(i.GPIOPinTypeGPIOOutput) refers to gpio.o(i.GPIOPadConfigSet) for GPIOPadConfigSet
    gpio.o(i.GPIOPinTypeGPIOOutput) refers to gpio.o(i.GPIODirModeSet) for GPIODirModeSet
    gpio.o(i.GPIOPinTypeGPIOOutputOD) refers to gpio.o(i.GPIOPadConfigSet) for GPIOPadConfigSet
    gpio.o(i.GPIOPinTypeGPIOOutputOD) refers to gpio.o(i.GPIODirModeSet) for GPIODirModeSet
    gpio.o(i.GPIOPinTypeHibernateRTCCLK) refers to gpio.o(i.GPIODirModeSet) for GPIODirModeSet
    gpio.o(i.GPIOPinTypeHibernateRTCCLK) refers to gpio.o(i.GPIOPadConfigSet) for GPIOPadConfigSet
    gpio.o(i.GPIOPinTypeI2C) refers to gpio.o(i.GPIODirModeSet) for GPIODirModeSet
    gpio.o(i.GPIOPinTypeI2C) refers to gpio.o(i.GPIOPadConfigSet) for GPIOPadConfigSet
    gpio.o(i.GPIOPinTypeI2CSCL) refers to gpio.o(i.GPIODirModeSet) for GPIODirModeSet
    gpio.o(i.GPIOPinTypeI2CSCL) refers to gpio.o(i.GPIOPadConfigSet) for GPIOPadConfigSet
    gpio.o(i.GPIOPinTypeLCD) refers to gpio.o(i.GPIODirModeSet) for GPIODirModeSet
    gpio.o(i.GPIOPinTypeLCD) refers to gpio.o(i.GPIOPadConfigSet) for GPIOPadConfigSet
    gpio.o(i.GPIOPinTypeOneWire) refers to gpio.o(i.GPIODirModeSet) for GPIODirModeSet
    gpio.o(i.GPIOPinTypeOneWire) refers to gpio.o(i.GPIOPadConfigSet) for GPIOPadConfigSet
    gpio.o(i.GPIOPinTypePWM) refers to gpio.o(i.GPIODirModeSet) for GPIODirModeSet
    gpio.o(i.GPIOPinTypePWM) refers to gpio.o(i.GPIOPadConfigSet) for GPIOPadConfigSet
    gpio.o(i.GPIOPinTypeQEI) refers to gpio.o(i.GPIODirModeSet) for GPIODirModeSet
    gpio.o(i.GPIOPinTypeQEI) refers to gpio.o(i.GPIOPadConfigSet) for GPIOPadConfigSet
    gpio.o(i.GPIOPinTypeSSI) refers to gpio.o(i.GPIODirModeSet) for GPIODirModeSet
    gpio.o(i.GPIOPinTypeSSI) refers to gpio.o(i.GPIOPadConfigSet) for GPIOPadConfigSet
    gpio.o(i.GPIOPinTypeTimer) refers to gpio.o(i.GPIODirModeSet) for GPIODirModeSet
    gpio.o(i.GPIOPinTypeTimer) refers to gpio.o(i.GPIOPadConfigSet) for GPIOPadConfigSet
    gpio.o(i.GPIOPinTypeTrace) refers to gpio.o(i.GPIODirModeSet) for GPIODirModeSet
    gpio.o(i.GPIOPinTypeTrace) refers to gpio.o(i.GPIOPadConfigSet) for GPIOPadConfigSet
    gpio.o(i.GPIOPinTypeUART) refers to gpio.o(i.GPIODirModeSet) for GPIODirModeSet
    gpio.o(i.GPIOPinTypeUART) refers to gpio.o(i.GPIOPadConfigSet) for GPIOPadConfigSet
    gpio.o(i.GPIOPinTypeUSBAnalog) refers to gpio.o(i.GPIODirModeSet) for GPIODirModeSet
    gpio.o(i.GPIOPinTypeUSBAnalog) refers to gpio.o(i.GPIOPadConfigSet) for GPIOPadConfigSet
    gpio.o(i.GPIOPinTypeUSBDigital) refers to gpio.o(i.GPIODirModeSet) for GPIODirModeSet
    gpio.o(i.GPIOPinTypeUSBDigital) refers to gpio.o(i.GPIOPadConfigSet) for GPIOPadConfigSet
    gpio.o(i.GPIOPinTypeWakeHigh) refers to gpio.o(i.GPIODirModeSet) for GPIODirModeSet
    gpio.o(i.GPIOPinTypeWakeHigh) refers to gpio.o(i.GPIOPadConfigSet) for GPIOPadConfigSet
    gpio.o(i.GPIOPinTypeWakeLow) refers to gpio.o(i.GPIODirModeSet) for GPIODirModeSet
    gpio.o(i.GPIOPinTypeWakeLow) refers to gpio.o(i.GPIOPadConfigSet) for GPIOPadConfigSet
    interrupt.o(i.IntDisable) refers to interrupt.o(.constdata) for .constdata
    interrupt.o(i.IntEnable) refers to interrupt.o(.constdata) for .constdata
    interrupt.o(i.IntIsEnabled) refers to interrupt.o(.constdata) for .constdata
    interrupt.o(i.IntMasterDisable) refers to cpu.o(.emb_text) for CPUcpsid
    interrupt.o(i.IntMasterEnable) refers to cpu.o(.emb_text) for CPUcpsie
    interrupt.o(i.IntPendClear) refers to interrupt.o(.constdata) for .constdata
    interrupt.o(i.IntPendSet) refers to interrupt.o(.constdata) for .constdata
    interrupt.o(i.IntPriorityGet) refers to interrupt.o(.constdata) for .constdata
    interrupt.o(i.IntPriorityGroupingGet) refers to interrupt.o(.constdata) for .constdata
    interrupt.o(i.IntPriorityGroupingSet) refers to interrupt.o(.constdata) for .constdata
    interrupt.o(i.IntPriorityMaskGet) refers to cpu.o(.emb_text) for CPUbasepriGet
    interrupt.o(i.IntPriorityMaskSet) refers to cpu.o(.emb_text) for CPUbasepriSet
    interrupt.o(i.IntPrioritySet) refers to interrupt.o(.constdata) for .constdata
    interrupt.o(i.IntRegister) refers to interrupt.o(vtable) for vtable
    interrupt.o(i.IntUnregister) refers to interrupt.o(i._IntDefaultHandler) for _IntDefaultHandler
    interrupt.o(i.IntUnregister) refers to interrupt.o(vtable) for vtable
    pwm.o(i.PWMFaultIntRegister) refers to interrupt.o(i.IntRegister) for IntRegister
    pwm.o(i.PWMFaultIntRegister) refers to interrupt.o(i.IntEnable) for IntEnable
    pwm.o(i.PWMFaultIntUnregister) refers to interrupt.o(i.IntDisable) for IntDisable
    pwm.o(i.PWMFaultIntUnregister) refers to interrupt.o(i.IntUnregister) for IntUnregister
    pwm.o(i.PWMGenIntRegister) refers to pwm.o(i._PWMGenIntNumberGet) for _PWMGenIntNumberGet
    pwm.o(i.PWMGenIntRegister) refers to interrupt.o(i.IntRegister) for IntRegister
    pwm.o(i.PWMGenIntRegister) refers to interrupt.o(i.IntEnable) for IntEnable
    pwm.o(i.PWMGenIntUnregister) refers to pwm.o(i._PWMGenIntNumberGet) for _PWMGenIntNumberGet
    pwm.o(i.PWMGenIntUnregister) refers to interrupt.o(i.IntDisable) for IntDisable
    pwm.o(i.PWMGenIntUnregister) refers to interrupt.o(i.IntUnregister) for IntUnregister
    sysctl.o(i.SysCtlClockFreqSet) refers to sysctl.o(.constdata) for .constdata
    sysctl.o(i.SysCtlClockGet) refers to sysctl.o(.constdata) for .constdata
    sysctl.o(i.SysCtlClockSet) refers to sysctl.o(.emb_text) for SysCtlDelay
    sysctl.o(i.SysCtlDeepSleep) refers to cpu.o(.emb_text) for CPUwfi
    sysctl.o(i.SysCtlIntRegister) refers to interrupt.o(i.IntRegister) for IntRegister
    sysctl.o(i.SysCtlIntRegister) refers to interrupt.o(i.IntEnable) for IntEnable
    sysctl.o(i.SysCtlIntUnregister) refers to interrupt.o(i.IntDisable) for IntDisable
    sysctl.o(i.SysCtlIntUnregister) refers to interrupt.o(i.IntUnregister) for IntUnregister
    sysctl.o(i.SysCtlSleep) refers to cpu.o(.emb_text) for CPUwfi
    systick.o(i.SysTickIntRegister) refers to interrupt.o(i.IntRegister) for IntRegister
    systick.o(i.SysTickIntUnregister) refers to interrupt.o(i.IntUnregister) for IntUnregister
    timer.o(i.TimerIntRegister) refers to interrupt.o(i.IntRegister) for IntRegister
    timer.o(i.TimerIntRegister) refers to interrupt.o(i.IntEnable) for IntEnable
    timer.o(i.TimerIntRegister) refers to timer.o(.constdata) for .constdata
    timer.o(i.TimerIntUnregister) refers to interrupt.o(i.IntDisable) for IntDisable
    timer.o(i.TimerIntUnregister) refers to interrupt.o(i.IntUnregister) for IntUnregister
    timer.o(i.TimerIntUnregister) refers to timer.o(.constdata) for .constdata
    uart.o(i.UARTIntRegister) refers to interrupt.o(i.IntRegister) for IntRegister
    uart.o(i.UARTIntRegister) refers to interrupt.o(i.IntEnable) for IntEnable
    uart.o(i.UARTIntRegister) refers to uart.o(.constdata) for .constdata
    uart.o(i.UARTIntUnregister) refers to interrupt.o(i.IntDisable) for IntDisable
    uart.o(i.UARTIntUnregister) refers to interrupt.o(i.IntUnregister) for IntUnregister
    uart.o(i.UARTIntUnregister) refers to uart.o(.constdata) for .constdata
    __2printf.o(.text) refers to _printf_char_file.o(.text) for _printf_char_file
    __2printf.o(.text) refers to retarget.o(.data) for __stdout
    noretval__2printf.o(.text) refers to _printf_char_file.o(.text) for _printf_char_file
    noretval__2printf.o(.text) refers to retarget.o(.data) for __stdout
    __printf.o(.text) refers to _printf_percent.o(.ARM.Collect$$_printf_percent$$00000000) for _printf_percent
    _printf_str.o(.text) refers (Special) to _printf_char.o(.text) for _printf_cs_common
    _printf_dec.o(.text) refers to _printf_intcommon.o(.text) for _printf_int_common
    __printf_flags.o(.text) refers to _printf_percent.o(.ARM.Collect$$_printf_percent$$00000000) for _printf_percent
    __printf_flags.o(.text) refers to __printf_flags.o(.constdata) for .constdata
    __printf_ss.o(.text) refers to _printf_percent.o(.ARM.Collect$$_printf_percent$$00000000) for _printf_percent
    __printf_flags_ss.o(.text) refers to _printf_percent.o(.ARM.Collect$$_printf_percent$$00000000) for _printf_percent
    __printf_flags_ss.o(.text) refers to __printf_flags_ss.o(.constdata) for .constdata
    __printf_wp.o(.text) refers to __printf_wp.o(i._is_digit) for _is_digit
    __printf_wp.o(.text) refers to _printf_percent.o(.ARM.Collect$$_printf_percent$$00000000) for _printf_percent
    __printf_flags_wp.o(.text) refers to __printf_wp.o(i._is_digit) for _is_digit
    __printf_flags_wp.o(.text) refers to _printf_percent.o(.ARM.Collect$$_printf_percent$$00000000) for _printf_percent
    __printf_flags_wp.o(.text) refers to __printf_flags_wp.o(.constdata) for .constdata
    __printf_ss_wp.o(.text) refers to __printf_wp.o(i._is_digit) for _is_digit
    __printf_ss_wp.o(.text) refers to _printf_percent.o(.ARM.Collect$$_printf_percent$$00000000) for _printf_percent
    __printf_flags_ss_wp.o(.text) refers to __printf_wp.o(i._is_digit) for _is_digit
    __printf_flags_ss_wp.o(.text) refers to _printf_percent.o(.ARM.Collect$$_printf_percent$$00000000) for _printf_percent
    __printf_flags_ss_wp.o(.text) refers to __printf_flags_ss_wp.o(.constdata) for .constdata
    _printf_c.o(.ARM.Collect$$_printf_percent$$00000013) refers (Weak) to _printf_char.o(.text) for _printf_char
    _printf_s.o(.ARM.Collect$$_printf_percent$$00000014) refers (Weak) to _printf_char.o(.text) for _printf_string
    _printf_d.o(.ARM.Collect$$_printf_percent$$00000009) refers (Weak) to _printf_dec.o(.text) for _printf_int_dec
    _printf_f.o(.ARM.Collect$$_printf_percent$$00000003) refers (Weak) to printf1.o(x$fpl$printf1) for _printf_fp_dec
    _printf_percent.o(.ARM.Collect$$_printf_percent$$00000000) refers (Special) to _printf_percent_end.o(.ARM.Collect$$_printf_percent$$00000017) for _printf_percent_end
    getc.o(.text) refers to retarget.o(i.fgetc) for fgetc
    puts.o(.text) refers to retarget.o(i.fputc) for fputc
    puts.o(.text) refers to retarget.o(.data) for __stdout
    __main.o(!!!main) refers to __rtentry.o(.ARM.Collect$$rtentry$$00000000) for __rt_entry
    d2f.o(x$fpl$d2f) refers (Special) to usenofp.o(x$fpl$usenofp) for __I$use$fp
    d2f.o(x$fpl$d2f) refers to fretinf.o(x$fpl$fretinf) for __fpl_fretinf
    d2f.o(x$fpl$d2f) refers to dnaninf.o(x$fpl$dnaninf) for __fpl_dnaninf
    daddsub_clz.o(x$fpl$dadd) refers (Special) to usenofp.o(x$fpl$usenofp) for __I$use$fp
    daddsub_clz.o(x$fpl$dadd) refers to daddsub_clz.o(x$fpl$dsub) for _dsub1
    daddsub_clz.o(x$fpl$dadd) refers to dretinf.o(x$fpl$dretinf) for __fpl_dretinf
    daddsub_clz.o(x$fpl$dadd) refers to dnaninf.o(x$fpl$dnaninf) for __fpl_dnaninf
    daddsub_clz.o(x$fpl$drsb) refers (Special) to usenofp.o(x$fpl$usenofp) for __I$use$fp
    daddsub_clz.o(x$fpl$drsb) refers to daddsub_clz.o(x$fpl$dadd) for _dadd1
    daddsub_clz.o(x$fpl$drsb) refers to daddsub_clz.o(x$fpl$dsub) for _dsub1
    daddsub_clz.o(x$fpl$dsub) refers (Special) to usenofp.o(x$fpl$usenofp) for __I$use$fp
    daddsub_clz.o(x$fpl$dsub) refers to daddsub_clz.o(x$fpl$dadd) for _dadd1
    daddsub_clz.o(x$fpl$dsub) refers to dnaninf.o(x$fpl$dnaninf) for __fpl_dnaninf
    ddiv.o(x$fpl$drdiv) refers (Special) to usenofp.o(x$fpl$usenofp) for __I$use$fp
    ddiv.o(x$fpl$drdiv) refers to ddiv.o(x$fpl$ddiv) for ddiv_entry
    ddiv.o(x$fpl$ddiv) refers (Special) to usenofp.o(x$fpl$usenofp) for __I$use$fp
    ddiv.o(x$fpl$ddiv) refers to dretinf.o(x$fpl$dretinf) for __fpl_dretinf
    ddiv.o(x$fpl$ddiv) refers to dnaninf.o(x$fpl$dnaninf) for __fpl_dnaninf
    dflt_clz.o(x$fpl$dfltu) refers (Special) to usenofp.o(x$fpl$usenofp) for __I$use$fp
    dflt_clz.o(x$fpl$dflt) refers (Special) to usenofp.o(x$fpl$usenofp) for __I$use$fp
    dflt_clz.o(x$fpl$dfltn) refers (Special) to usenofp.o(x$fpl$usenofp) for __I$use$fp
    dleqf.o(x$fpl$dleqf) refers (Special) to usenofp.o(x$fpl$usenofp) for __I$use$fp
    dleqf.o(x$fpl$dleqf) refers to dnaninf.o(x$fpl$dnaninf) for __fpl_dnaninf
    dleqf.o(x$fpl$dleqf) refers to dcmpi.o(x$fpl$dcmpinf) for __fpl_dcmp_Inf
    dmul.o(x$fpl$dmul) refers (Special) to usenofp.o(x$fpl$usenofp) for __I$use$fp
    dmul.o(x$fpl$dmul) refers to dretinf.o(x$fpl$dretinf) for __fpl_dretinf
    dmul.o(x$fpl$dmul) refers to dnaninf.o(x$fpl$dnaninf) for __fpl_dnaninf
    f2d.o(x$fpl$f2d) refers (Special) to usenofp.o(x$fpl$usenofp) for __I$use$fp
    f2d.o(x$fpl$f2d) refers to fnaninf.o(x$fpl$fnaninf) for __fpl_fnaninf
    f2d.o(x$fpl$f2d) refers to dretinf.o(x$fpl$dretinf) for __fpl_dretinf
    printf1.o(x$fpl$printf1) refers to _printf_fp_dec.o(.text) for _printf_fp_dec_real
    __rtentry.o(.ARM.Collect$$rtentry$$00000000) refers (Special) to __rtentry2.o(.ARM.Collect$$rtentry$$0000000A) for __rt_entry_li
    __rtentry.o(.ARM.Collect$$rtentry$$00000000) refers (Special) to __rtentry2.o(.ARM.Collect$$rtentry$$0000000D) for __rt_entry_main
    __rtentry.o(.ARM.Collect$$rtentry$$00000000) refers (Special) to __rtentry2.o(.ARM.Collect$$rtentry$$0000000C) for __rt_entry_postli_1
    __rtentry.o(.ARM.Collect$$rtentry$$00000000) refers (Special) to __rtentry2.o(.ARM.Collect$$rtentry$$00000009) for __rt_entry_postsh_1
    __rtentry.o(.ARM.Collect$$rtentry$$00000000) refers (Special) to __rtentry2.o(.ARM.Collect$$rtentry$$00000002) for __rt_entry_presh_1
    __rtentry.o(.ARM.Collect$$rtentry$$00000000) refers (Special) to __rtentry4.o(.ARM.Collect$$rtentry$$00000004) for __rt_entry_sh
    _printf_fp_dec.o(.text) refers (Special) to usenofp.o(x$fpl$usenofp) for __I$use$fp
    _printf_fp_dec.o(.text) refers (Special) to lc_numeric_c.o(locale$$code) for _get_lc_numeric
    _printf_fp_dec.o(.text) refers to bigflt0.o(.text) for _btod_etento
    _printf_fp_dec.o(.text) refers to btod.o(CL$$btod_d2e) for _btod_d2e
    _printf_fp_dec.o(.text) refers to btod.o(CL$$btod_ediv) for _btod_ediv
    _printf_fp_dec.o(.text) refers to btod.o(CL$$btod_emul) for _btod_emul
    _printf_fp_dec.o(.text) refers to lludiv10.o(.text) for _ll_udiv10
    _printf_fp_dec.o(.text) refers to fpclassify.o(i.__ARM_fpclassify) for __ARM_fpclassify
    _printf_fp_dec.o(.text) refers to _printf_fp_infnan.o(.text) for _printf_fp_infnan
    _printf_fp_dec.o(.text) refers to rt_locale_intlibspace.o(.text) for __rt_locale
    _printf_char.o(.text) refers (Weak) to _printf_str.o(.text) for _printf_str
    _printf_char_file.o(.text) refers to _printf_char_common.o(.text) for _printf_char_common
    _printf_char_file.o(.text) refers to retarget.o(i.ferror) for ferror
    _printf_char_file.o(.text) refers to retarget.o(i.fputc) for fputc
    dcmpi.o(x$fpl$dcmpinf) refers (Special) to usenofp.o(x$fpl$usenofp) for __I$use$fp
    dnaninf.o(x$fpl$dnaninf) refers (Special) to usenofp.o(x$fpl$usenofp) for __I$use$fp
    dretinf.o(x$fpl$dretinf) refers (Special) to usenofp.o(x$fpl$usenofp) for __I$use$fp
    fnaninf.o(x$fpl$fnaninf) refers (Special) to usenofp.o(x$fpl$usenofp) for __I$use$fp
    fretinf.o(x$fpl$fretinf) refers (Special) to usenofp.o(x$fpl$usenofp) for __I$use$fp
    __rtentry2.o(.ARM.Collect$$rtentry$$00000008) refers to boardinit2.o(.text) for _platform_post_stackheap_init
    __rtentry2.o(.ARM.Collect$$rtentry$$0000000A) refers to libinit.o(.ARM.Collect$$libinit$$00000000) for __rt_lib_init
    __rtentry2.o(.ARM.Collect$$rtentry$$0000000B) refers to boardinit3.o(.text) for _platform_post_lib_init
    __rtentry2.o(.ARM.Collect$$rtentry$$0000000D) refers to main.o(i.main) for main
    __rtentry2.o(.ARM.Collect$$rtentry$$0000000D) refers to exit.o(.text) for exit
    __rtentry2.o(.ARM.exidx) refers to __rtentry2.o(.ARM.Collect$$rtentry$$00000001) for .ARM.Collect$$rtentry$$00000001
    __rtentry2.o(.ARM.exidx) refers to __rtentry2.o(.ARM.Collect$$rtentry$$00000008) for .ARM.Collect$$rtentry$$00000008
    __rtentry2.o(.ARM.exidx) refers to __rtentry2.o(.ARM.Collect$$rtentry$$0000000A) for .ARM.Collect$$rtentry$$0000000A
    __rtentry2.o(.ARM.exidx) refers to __rtentry2.o(.ARM.Collect$$rtentry$$0000000B) for .ARM.Collect$$rtentry$$0000000B
    __rtentry2.o(.ARM.exidx) refers to __rtentry2.o(.ARM.Collect$$rtentry$$0000000D) for .ARM.Collect$$rtentry$$0000000D
    __rtentry4.o(.ARM.Collect$$rtentry$$00000004) refers to sys_stackheap_outer.o(.text) for __user_setup_stackheap
    __rtentry4.o(.ARM.exidx) refers to __rtentry4.o(.ARM.Collect$$rtentry$$00000004) for .ARM.Collect$$rtentry$$00000004
    rt_locale.o(.text) refers to rt_locale.o(.bss) for __rt_locale_data
    rt_locale_intlibspace.o(.text) refers to libspace.o(.bss) for __libspace_start
    _printf_char_common.o(.text) refers to __printf_flags_wp.o(.text) for __printf
    bigflt0.o(.text) refers (Special) to usenofp.o(x$fpl$usenofp) for __I$use$fp
    bigflt0.o(.text) refers to btod.o(CL$$btod_emul) for _btod_emul
    bigflt0.o(.text) refers to btod.o(CL$$btod_ediv) for _btod_ediv
    bigflt0.o(.text) refers to bigflt0.o(.constdata) for .constdata
    bigflt0.o(.constdata) refers (Special) to usenofp.o(x$fpl$usenofp) for __I$use$fp
    btod.o(CL$$btod_d2e) refers (Special) to usenofp.o(x$fpl$usenofp) for __I$use$fp
    btod.o(CL$$btod_d2e) refers to btod.o(CL$$btod_d2e_norm_op1) for _d2e_norm_op1
    btod.o(CL$$btod_d2e_norm_op1) refers (Special) to usenofp.o(x$fpl$usenofp) for __I$use$fp
    btod.o(CL$$btod_d2e_norm_op1) refers to btod.o(CL$$btod_d2e_denorm_low) for _d2e_denorm_low
    btod.o(CL$$btod_d2e_denorm_low) refers (Special) to usenofp.o(x$fpl$usenofp) for __I$use$fp
    btod.o(CL$$btod_emul) refers (Special) to usenofp.o(x$fpl$usenofp) for __I$use$fp
    btod.o(CL$$btod_emul) refers to btod.o(CL$$btod_mult_common) for __btod_mult_common
    btod.o(CL$$btod_emul) refers to btod.o(CL$$btod_e2e) for _e2e
    btod.o(CL$$btod_ediv) refers (Special) to usenofp.o(x$fpl$usenofp) for __I$use$fp
    btod.o(CL$$btod_ediv) refers to btod.o(CL$$btod_div_common) for __btod_div_common
    btod.o(CL$$btod_ediv) refers to btod.o(CL$$btod_e2e) for _e2e
    btod.o(CL$$btod_emuld) refers (Special) to usenofp.o(x$fpl$usenofp) for __I$use$fp
    btod.o(CL$$btod_emuld) refers to btod.o(CL$$btod_mult_common) for __btod_mult_common
    btod.o(CL$$btod_emuld) refers to btod.o(CL$$btod_e2d) for _e2d
    btod.o(CL$$btod_edivd) refers (Special) to usenofp.o(x$fpl$usenofp) for __I$use$fp
    btod.o(CL$$btod_edivd) refers to btod.o(CL$$btod_div_common) for __btod_div_common
    btod.o(CL$$btod_edivd) refers to btod.o(CL$$btod_e2d) for _e2d
    btod.o(CL$$btod_e2e) refers (Special) to usenofp.o(x$fpl$usenofp) for __I$use$fp
    btod.o(CL$$btod_e2d) refers (Special) to usenofp.o(x$fpl$usenofp) for __I$use$fp
    btod.o(CL$$btod_e2d) refers to btod.o(CL$$btod_e2e) for _e2e
    btod.o(CL$$btod_mult_common) refers (Special) to usenofp.o(x$fpl$usenofp) for __I$use$fp
    btod.o(CL$$btod_div_common) refers (Special) to usenofp.o(x$fpl$usenofp) for __I$use$fp
    lc_numeric_c.o(locale$$data) refers (Special) to libinit2.o(.ARM.Collect$$libinit$$00000016) for __rt_lib_init_lc_numeric_2
    lc_numeric_c.o(locale$$code) refers (Special) to libinit2.o(.ARM.Collect$$libinit$$00000016) for __rt_lib_init_lc_numeric_2
    lc_numeric_c.o(locale$$code) refers to strcmpv7m.o(.text) for strcmp
    lc_numeric_c.o(locale$$code) refers to lc_numeric_c.o(locale$$data) for __lcnum_c_name
    istatus.o(x$fpl$ieeestatus) refers (Special) to usenofp.o(x$fpl$usenofp) for __I$use$fp
    fpclassify.o(i.__ARM_fpclassify) refers (Special) to usenofp.o(x$fpl$usenofp) for __I$use$fp
    libspace.o(.text) refers to libspace.o(.bss) for __libspace_start
    sys_stackheap_outer.o(.text) refers to libspace.o(.text) for __user_perproc_libspace
    sys_stackheap_outer.o(.text) refers to startup_rvmdk.o(.text) for __user_initial_stackheap
    exit.o(.text) refers to rtexit.o(.ARM.Collect$$rtexit$$00000000) for __rt_exit
    libinit.o(.ARM.Collect$$libinit$$00000000) refers (Special) to libinit2.o(.ARM.Collect$$libinit$$0000002E) for __rt_lib_init_alloca_1
    libinit.o(.ARM.Collect$$libinit$$00000000) refers (Special) to libinit2.o(.ARM.Collect$$libinit$$0000002C) for __rt_lib_init_argv_1
    libinit.o(.ARM.Collect$$libinit$$00000000) refers (Special) to libinit2.o(.ARM.Collect$$libinit$$0000001B) for __rt_lib_init_atexit_1
    libinit.o(.ARM.Collect$$libinit$$00000000) refers (Special) to libinit2.o(.ARM.Collect$$libinit$$00000021) for __rt_lib_init_clock_1
    libinit.o(.ARM.Collect$$libinit$$00000000) refers (Special) to libinit2.o(.ARM.Collect$$libinit$$00000032) for __rt_lib_init_cpp_1
    libinit.o(.ARM.Collect$$libinit$$00000000) refers (Special) to libinit2.o(.ARM.Collect$$libinit$$00000030) for __rt_lib_init_exceptions_1
    libinit.o(.ARM.Collect$$libinit$$00000000) refers (Special) to libinit2.o(.ARM.Collect$$libinit$$00000001) for __rt_lib_init_fp_1
    libinit.o(.ARM.Collect$$libinit$$00000000) refers (Special) to libinit2.o(.ARM.Collect$$libinit$$0000001F) for __rt_lib_init_fp_trap_1
    libinit.o(.ARM.Collect$$libinit$$00000000) refers (Special) to libinit2.o(.ARM.Collect$$libinit$$00000023) for __rt_lib_init_getenv_1
    libinit.o(.ARM.Collect$$libinit$$00000000) refers (Special) to libinit2.o(.ARM.Collect$$libinit$$0000000A) for __rt_lib_init_heap_1
    libinit.o(.ARM.Collect$$libinit$$00000000) refers (Special) to libinit2.o(.ARM.Collect$$libinit$$00000011) for __rt_lib_init_lc_collate_1
    libinit.o(.ARM.Collect$$libinit$$00000000) refers (Special) to libinit2.o(.ARM.Collect$$libinit$$00000013) for __rt_lib_init_lc_ctype_1
    libinit.o(.ARM.Collect$$libinit$$00000000) refers (Special) to libinit2.o(.ARM.Collect$$libinit$$00000015) for __rt_lib_init_lc_monetary_1
    libinit.o(.ARM.Collect$$libinit$$00000000) refers (Special) to libinit2.o(.ARM.Collect$$libinit$$00000017) for __rt_lib_init_lc_numeric_1
    libinit.o(.ARM.Collect$$libinit$$00000000) refers (Special) to libinit2.o(.ARM.Collect$$libinit$$00000019) for __rt_lib_init_lc_time_1
    libinit.o(.ARM.Collect$$libinit$$00000000) refers (Special) to libinit2.o(.ARM.Collect$$libinit$$00000004) for __rt_lib_init_preinit_1
    libinit.o(.ARM.Collect$$libinit$$00000000) refers (Special) to libinit2.o(.ARM.Collect$$libinit$$0000000E) for __rt_lib_init_rand_1
    libinit.o(.ARM.Collect$$libinit$$00000000) refers (Special) to libinit2.o(.ARM.Collect$$libinit$$00000033) for __rt_lib_init_return
    libinit.o(.ARM.Collect$$libinit$$00000000) refers (Special) to libinit2.o(.ARM.Collect$$libinit$$0000001D) for __rt_lib_init_signal_1
    libinit.o(.ARM.Collect$$libinit$$00000000) refers (Special) to libinit2.o(.ARM.Collect$$libinit$$00000025) for __rt_lib_init_stdio_1
    libinit.o(.ARM.Collect$$libinit$$00000000) refers (Special) to libinit2.o(.ARM.Collect$$libinit$$0000000C) for __rt_lib_init_user_alloc_1
    libinit2.o(.ARM.Collect$$libinit$$00000001) refers to fpinit.o(x$fpl$fpinit) for _fp_init
    libinit2.o(.ARM.Collect$$libinit$$0000000F) refers (Weak) to rt_locale_intlibspace.o(.text) for __rt_locale
    libinit2.o(.ARM.Collect$$libinit$$00000010) refers to libinit2.o(.ARM.Collect$$libinit$$0000000F) for .ARM.Collect$$libinit$$0000000F
    libinit2.o(.ARM.Collect$$libinit$$00000012) refers to libinit2.o(.ARM.Collect$$libinit$$0000000F) for .ARM.Collect$$libinit$$0000000F
    libinit2.o(.ARM.Collect$$libinit$$00000014) refers to libinit2.o(.ARM.Collect$$libinit$$0000000F) for .ARM.Collect$$libinit$$0000000F
    libinit2.o(.ARM.Collect$$libinit$$00000016) refers to libinit2.o(.ARM.Collect$$libinit$$0000000F) for .ARM.Collect$$libinit$$0000000F
    libinit2.o(.ARM.Collect$$libinit$$00000016) refers (Weak) to lc_numeric_c.o(locale$$code) for _get_lc_numeric
    libinit2.o(.ARM.Collect$$libinit$$00000018) refers to libinit2.o(.ARM.Collect$$libinit$$0000000F) for .ARM.Collect$$libinit$$0000000F
    libinit2.o(.ARM.Collect$$libinit$$00000026) refers to argv_veneer.o(.emb_text) for __ARM_argv_veneer
    libinit2.o(.ARM.Collect$$libinit$$00000027) refers to argv_veneer.o(.emb_text) for __ARM_argv_veneer
    rtexit.o(.ARM.Collect$$rtexit$$00000000) refers (Special) to rtexit2.o(.ARM.Collect$$rtexit$$00000004) for __rt_exit_exit
    rtexit.o(.ARM.Collect$$rtexit$$00000000) refers (Special) to rtexit2.o(.ARM.Collect$$rtexit$$00000003) for __rt_exit_ls
    rtexit.o(.ARM.Collect$$rtexit$$00000000) refers (Special) to rtexit2.o(.ARM.Collect$$rtexit$$00000002) for __rt_exit_prels_1
    rtexit.o(.ARM.exidx) refers (Special) to rtexit2.o(.ARM.Collect$$rtexit$$00000004) for __rt_exit_exit
    rtexit.o(.ARM.exidx) refers (Special) to rtexit2.o(.ARM.Collect$$rtexit$$00000003) for __rt_exit_ls
    rtexit.o(.ARM.exidx) refers (Special) to rtexit2.o(.ARM.Collect$$rtexit$$00000002) for __rt_exit_prels_1
    rtexit.o(.ARM.exidx) refers to rtexit.o(.ARM.Collect$$rtexit$$00000000) for .ARM.Collect$$rtexit$$00000000
    argv_veneer.o(.emb_text) refers to no_argv.o(.text) for __ARM_get_argv
    rtexit2.o(.ARM.Collect$$rtexit$$00000003) refers to libshutdown.o(.ARM.Collect$$libshutdown$$00000000) for __rt_lib_shutdown
    rtexit2.o(.ARM.Collect$$rtexit$$00000004) refers to retarget.o(i._sys_exit) for _sys_exit
    rtexit2.o(.ARM.exidx) refers to rtexit2.o(.ARM.Collect$$rtexit$$00000001) for .ARM.Collect$$rtexit$$00000001
    rtexit2.o(.ARM.exidx) refers to rtexit2.o(.ARM.Collect$$rtexit$$00000003) for .ARM.Collect$$rtexit$$00000003
    rtexit2.o(.ARM.exidx) refers to rtexit2.o(.ARM.Collect$$rtexit$$00000004) for .ARM.Collect$$rtexit$$00000004
    _get_argv_nomalloc.o(.text) refers (Special) to hrguard.o(.text) for __heap_region$guard
    _get_argv_nomalloc.o(.text) refers to defsig_rtmem_outer.o(.text) for __rt_SIGRTMEM
    _get_argv_nomalloc.o(.text) refers to sys_command.o(.text) for _sys_command_string
    sys_command.o(.text) refers (Special) to use_no_semi.o(.text) for __I$use$semihosting
    sys_command.o(.text) refers (Special) to indicate_semi.o(.text) for __semihosting_library_function
    defsig_rtmem_outer.o(.text) refers to defsig_rtmem_inner.o(.text) for __rt_SIGRTMEM_inner
    defsig_rtmem_outer.o(.text) refers to defsig_exit.o(.text) for __sig_exit
    defsig_rtmem_formal.o(.text) refers to rt_raise.o(.text) for __rt_raise
    libshutdown.o(.ARM.Collect$$libshutdown$$00000000) refers (Special) to libshutdown2.o(.ARM.Collect$$libshutdown$$00000002) for __rt_lib_shutdown_cpp_1
    libshutdown.o(.ARM.Collect$$libshutdown$$00000000) refers (Special) to libshutdown2.o(.ARM.Collect$$libshutdown$$00000007) for __rt_lib_shutdown_fp_trap_1
    libshutdown.o(.ARM.Collect$$libshutdown$$00000000) refers (Special) to libshutdown2.o(.ARM.Collect$$libshutdown$$0000000F) for __rt_lib_shutdown_heap_1
    libshutdown.o(.ARM.Collect$$libshutdown$$00000000) refers (Special) to libshutdown2.o(.ARM.Collect$$libshutdown$$00000010) for __rt_lib_shutdown_return
    libshutdown.o(.ARM.Collect$$libshutdown$$00000000) refers (Special) to libshutdown2.o(.ARM.Collect$$libshutdown$$0000000A) for __rt_lib_shutdown_signal_1
    libshutdown.o(.ARM.Collect$$libshutdown$$00000000) refers (Special) to libshutdown2.o(.ARM.Collect$$libshutdown$$00000004) for __rt_lib_shutdown_stdio_1
    libshutdown.o(.ARM.Collect$$libshutdown$$00000000) refers (Special) to libshutdown2.o(.ARM.Collect$$libshutdown$$0000000C) for __rt_lib_shutdown_user_alloc_1
    rt_raise.o(.text) refers to __raise.o(.text) for __raise
    rt_raise.o(.text) refers to retarget.o(i._sys_exit) for _sys_exit
    defsig_exit.o(.text) refers to retarget.o(i._sys_exit) for _sys_exit
    defsig_rtmem_inner.o(.text) refers to defsig_general.o(.text) for __default_signal_display
    __raise.o(.text) refers to defsig.o(CL$$defsig) for __default_signal_handler
    defsig_general.o(.text) refers to retarget.o(i._ttywrch) for _ttywrch
    defsig.o(CL$$defsig) refers to defsig_rtmem_inner.o(.text) for __rt_SIGRTMEM_inner
    defsig_abrt_inner.o(.text) refers to defsig_general.o(.text) for __default_signal_display
    defsig_fpe_inner.o(.text) refers to defsig_general.o(.text) for __default_signal_display
    defsig_rtred_inner.o(.text) refers to defsig_general.o(.text) for __default_signal_display
    defsig_stak_inner.o(.text) refers to defsig_general.o(.text) for __default_signal_display
    defsig_pvfn_inner.o(.text) refers to defsig_general.o(.text) for __default_signal_display
    defsig_cppl_inner.o(.text) refers to defsig_general.o(.text) for __default_signal_display
    defsig_segv_inner.o(.text) refers to defsig_general.o(.text) for __default_signal_display
    defsig_other.o(.text) refers to defsig_general.o(.text) for __default_signal_display


==============================================================================

Removing Unused input sections from the image.

    Removing testharnessservice0.o(i.PostTestHarnessService0), (20 bytes).
    Removing strategy.o(i.QueryStrategySM), (12 bytes).
    Removing statuspac.o(i.querycolor), (24 bytes).
    Removing sendbytesstatus.o(i.QuerySendBytesStatus), (12 bytes).
    Removing sendbytesstatus.o(i.WriteFIFO), (12 bytes).
    Removing init_all.o(i.getCurrentDirection), (12 bytes).
    Removing init_all.o(i.getIRFrequency), (28 bytes).
    Removing init_all.o(i.getPulsePeriodA), (12 bytes).
    Removing init_all.o(i.getPulsePeriodB), (12 bytes).
    Removing init_all.o(.constdata), (4 bytes).
    Removing capturestation.o(i.QueryCaptureSM), (12 bytes).
    Removing servo.o(i.WriteShooterServo), (16 bytes).
    Removing pwm10tiva.o(i.PWM_TIVA_SetPulseWidth), (68 bytes).
    Removing motordrive.o(i.activateLauncherServo), (16 bytes).
    Removing activateshooter.o(i.QueryShooter), (12 bytes).
    Removing followline.o(i.QueryFollowLine), (12 bytes).
    Removing ultrasonic.o(i.disableUltrasonic), (16 bytes).
    Removing ultrasonic.o(i.enableUltrasonic), (16 bytes).
    Removing ultrasonic.o(i.setTriggerHI), (20 bytes).
    Removing ultrasonic.o(i.setTriggerLO), (20 bytes).
    Removing es_framework.o(i.ES_PostAll), (80 bytes).
    Removing es_port.o(i.ConsoleInit), (80 bytes).
    Removing es_postlist.o(i.ES_PostList00), (56 bytes).
    Removing es_postlist.o(.constdata), (8 bytes).
    Removing es_queue.o(i.ES_IsQueueEmpty), (12 bytes).
    Removing es_timers.o(i.ES_Timer_SetTimer), (40 bytes).
    Removing es_timers.o(i.ES_Timer_StartTimer), (48 bytes).
    Removing es_timers.o(i.ES_Timer_StopTimer), (36 bytes).
    Removing retarget.o(i._ttywrch), (6 bytes).
    Removing uartstdio.o(i.UARTgets), (132 bytes).
    Removing uartstdio.o(i.UARTprintf), (18 bytes).
    Removing uartstdio.o(i.UARTvprintf), (436 bytes).
    Removing uartstdio.o(i.UARTwrite), (60 bytes).
    Removing gpio.o(i.GPIOADCTriggerDisable), (14 bytes).
    Removing gpio.o(i.GPIOADCTriggerEnable), (12 bytes).
    Removing gpio.o(i.GPIODMATriggerDisable), (14 bytes).
    Removing gpio.o(i.GPIODMATriggerEnable), (12 bytes).
    Removing gpio.o(i.GPIODirModeGet), (34 bytes).
    Removing gpio.o(i.GPIOIntClear), (6 bytes).
    Removing gpio.o(i.GPIOIntDisable), (14 bytes).
    Removing gpio.o(i.GPIOIntEnable), (12 bytes).
    Removing gpio.o(i.GPIOIntRegister), (88 bytes).
    Removing gpio.o(i.GPIOIntStatus), (14 bytes).
    Removing gpio.o(i.GPIOIntTypeGet), (68 bytes).
    Removing gpio.o(i.GPIOIntTypeSet), (80 bytes).
    Removing gpio.o(i.GPIOIntUnregister), (88 bytes).
    Removing gpio.o(i.GPIOPadConfigGet), (204 bytes).
    Removing gpio.o(i.GPIOPinRead), (6 bytes).
    Removing gpio.o(i.GPIOPinTypeADC), (28 bytes).
    Removing gpio.o(i.GPIOPinTypeCAN), (28 bytes).
    Removing gpio.o(i.GPIOPinTypeComparator), (28 bytes).
    Removing gpio.o(i.GPIOPinTypeComparatorOutput), (28 bytes).
    Removing gpio.o(i.GPIOPinTypeDIVSCLK), (28 bytes).
    Removing gpio.o(i.GPIOPinTypeEPI), (28 bytes).
    Removing gpio.o(i.GPIOPinTypeEthernetLED), (28 bytes).
    Removing gpio.o(i.GPIOPinTypeEthernetMII), (28 bytes).
    Removing gpio.o(i.GPIOPinTypeGPIOInput), (28 bytes).
    Removing gpio.o(i.GPIOPinTypeGPIOOutputOD), (28 bytes).
    Removing gpio.o(i.GPIOPinTypeHibernateRTCCLK), (28 bytes).
    Removing gpio.o(i.GPIOPinTypeI2C), (28 bytes).
    Removing gpio.o(i.GPIOPinTypeI2CSCL), (28 bytes).
    Removing gpio.o(i.GPIOPinTypeLCD), (28 bytes).
    Removing gpio.o(i.GPIOPinTypeOneWire), (28 bytes).
    Removing gpio.o(i.GPIOPinTypeQEI), (28 bytes).
    Removing gpio.o(i.GPIOPinTypeSSI), (28 bytes).
    Removing gpio.o(i.GPIOPinTypeTimer), (28 bytes).
    Removing gpio.o(i.GPIOPinTypeTrace), (28 bytes).
    Removing gpio.o(i.GPIOPinTypeUSBAnalog), (28 bytes).
    Removing gpio.o(i.GPIOPinTypeUSBDigital), (28 bytes).
    Removing gpio.o(i.GPIOPinTypeWakeHigh), (30 bytes).
    Removing gpio.o(i.GPIOPinTypeWakeLow), (30 bytes).
    Removing gpio.o(i.GPIOPinWakeStatus), (6 bytes).
    Removing interrupt.o(i.IntDisable), (100 bytes).
    Removing interrupt.o(i.IntIsEnabled), (96 bytes).
    Removing interrupt.o(i.IntMasterDisable), (14 bytes).
    Removing interrupt.o(i.IntPendClear), (68 bytes).
    Removing interrupt.o(i.IntPendSet), (84 bytes).
    Removing interrupt.o(i.IntPriorityGet), (28 bytes).
    Removing interrupt.o(i.IntPriorityGroupingGet), (36 bytes).
    Removing interrupt.o(i.IntPriorityGroupingSet), (28 bytes).
    Removing interrupt.o(i.IntPriorityMaskGet), (4 bytes).
    Removing interrupt.o(i.IntPriorityMaskSet), (4 bytes).
    Removing interrupt.o(i.IntPrioritySet), (40 bytes).
    Removing interrupt.o(i.IntRegister), (52 bytes).
    Removing interrupt.o(i.IntTrigger), (12 bytes).
    Removing interrupt.o(i.IntUnregister), (20 bytes).
    Removing interrupt.o(i._IntDefaultHandler), (2 bytes).
    Removing interrupt.o(vtable), (620 bytes).
    Removing pwm.o(i.PWMClockGet), (26 bytes).
    Removing pwm.o(i.PWMClockSet), (20 bytes).
    Removing pwm.o(i.PWMDeadBandDisable), (12 bytes).
    Removing pwm.o(i.PWMDeadBandEnable), (16 bytes).
    Removing pwm.o(i.PWMFaultIntClear), (8 bytes).
    Removing pwm.o(i.PWMFaultIntClearExt), (4 bytes).
    Removing pwm.o(i.PWMFaultIntRegister), (92 bytes).
    Removing pwm.o(i.PWMFaultIntUnregister), (84 bytes).
    Removing pwm.o(i.PWMGenDisable), (10 bytes).
    Removing pwm.o(i.PWMGenFaultClear), (18 bytes).
    Removing pwm.o(i.PWMGenFaultConfigure), (18 bytes).
    Removing pwm.o(i.PWMGenFaultStatus), (18 bytes).
    Removing pwm.o(i.PWMGenFaultTriggerGet), (12 bytes).
    Removing pwm.o(i.PWMGenFaultTriggerSet), (12 bytes).
    Removing pwm.o(i.PWMGenIntClear), (6 bytes).
    Removing pwm.o(i.PWMGenIntRegister), (26 bytes).
    Removing pwm.o(i.PWMGenIntStatus), (12 bytes).
    Removing pwm.o(i.PWMGenIntTrigDisable), (10 bytes).
    Removing pwm.o(i.PWMGenIntTrigEnable), (10 bytes).
    Removing pwm.o(i.PWMGenIntUnregister), (22 bytes).
    Removing pwm.o(i.PWMGenPeriodGet), (18 bytes).
    Removing pwm.o(i.PWMIntDisable), (10 bytes).
    Removing pwm.o(i.PWMIntEnable), (8 bytes).
    Removing pwm.o(i.PWMIntStatus), (10 bytes).
    Removing pwm.o(i.PWMOutputFault), (16 bytes).
    Removing pwm.o(i.PWMOutputFaultLevel), (16 bytes).
    Removing pwm.o(i.PWMOutputInvert), (16 bytes).
    Removing pwm.o(i.PWMOutputUpdateMode), (62 bytes).
    Removing pwm.o(i.PWMPulseWidthGet), (32 bytes).
    Removing pwm.o(i.PWMSyncTimeBase), (4 bytes).
    Removing pwm.o(i._PWMGenIntNumberGet), (224 bytes).
    Removing sysctl.o(i.SysCtlAltClkConfig), (12 bytes).
    Removing sysctl.o(i.SysCtlClockFreqSet), (712 bytes).
    Removing sysctl.o(i.SysCtlClockOutConfig), (20 bytes).
    Removing sysctl.o(i.SysCtlDeepSleep), (32 bytes).
    Removing sysctl.o(i.SysCtlDeepSleepClockConfigSet), (112 bytes).
    Removing sysctl.o(i.SysCtlDeepSleepClockSet), (12 bytes).
    Removing sysctl.o(i.SysCtlDeepSleepPowerSet), (12 bytes).
    Removing sysctl.o(i.SysCtlFlashSectorSizeGet), (56 bytes).
    Removing sysctl.o(i.SysCtlFlashSizeGet), (56 bytes).
    Removing sysctl.o(i.SysCtlGPIOAHBDisable), (28 bytes).
    Removing sysctl.o(i.SysCtlGPIOAHBEnable), (24 bytes).
    Removing sysctl.o(i.SysCtlIntClear), (12 bytes).
    Removing sysctl.o(i.SysCtlIntDisable), (16 bytes).
    Removing sysctl.o(i.SysCtlIntEnable), (16 bytes).
    Removing sysctl.o(i.SysCtlIntRegister), (20 bytes).
    Removing sysctl.o(i.SysCtlIntStatus), (16 bytes).
    Removing sysctl.o(i.SysCtlIntUnregister), (18 bytes).
    Removing sysctl.o(i.SysCtlLDODeepSleepGet), (12 bytes).
    Removing sysctl.o(i.SysCtlLDODeepSleepSet), (12 bytes).
    Removing sysctl.o(i.SysCtlLDOSleepGet), (12 bytes).
    Removing sysctl.o(i.SysCtlLDOSleepSet), (12 bytes).
    Removing sysctl.o(i.SysCtlMOSCConfigSet), (12 bytes).
    Removing sysctl.o(i.SysCtlNMIClear), (16 bytes).
    Removing sysctl.o(i.SysCtlNMIStatus), (12 bytes).
    Removing sysctl.o(i.SysCtlPIOSCCalibrate), (76 bytes).
    Removing sysctl.o(i.SysCtlPWMClockGet), (24 bytes).
    Removing sysctl.o(i.SysCtlPeripheralClockGating), (68 bytes).
    Removing sysctl.o(i.SysCtlPeripheralDeepSleepDisable), (40 bytes).
    Removing sysctl.o(i.SysCtlPeripheralDeepSleepEnable), (40 bytes).
    Removing sysctl.o(i.SysCtlPeripheralDisable), (40 bytes).
    Removing sysctl.o(i.SysCtlPeripheralPowerOff), (40 bytes).
    Removing sysctl.o(i.SysCtlPeripheralPowerOn), (40 bytes).
    Removing sysctl.o(i.SysCtlPeripheralPresent), (44 bytes).
    Removing sysctl.o(i.SysCtlPeripheralReset), (60 bytes).
    Removing sysctl.o(i.SysCtlPeripheralSleepDisable), (40 bytes).
    Removing sysctl.o(i.SysCtlPeripheralSleepEnable), (40 bytes).
    Removing sysctl.o(i.SysCtlReset), (16 bytes).
    Removing sysctl.o(i.SysCtlResetBehaviorGet), (12 bytes).
    Removing sysctl.o(i.SysCtlResetBehaviorSet), (12 bytes).
    Removing sysctl.o(i.SysCtlResetCauseClear), (16 bytes).
    Removing sysctl.o(i.SysCtlResetCauseGet), (12 bytes).
    Removing sysctl.o(i.SysCtlSRAMSizeGet), (16 bytes).
    Removing sysctl.o(i.SysCtlSleep), (4 bytes).
    Removing sysctl.o(i.SysCtlSleepPowerSet), (12 bytes).
    Removing sysctl.o(i.SysCtlUSBPLLDisable), (16 bytes).
    Removing sysctl.o(i.SysCtlUSBPLLEnable), (16 bytes).
    Removing sysctl.o(i.SysCtlVoltageEventClear), (16 bytes).
    Removing sysctl.o(i.SysCtlVoltageEventConfig), (12 bytes).
    Removing sysctl.o(i.SysCtlVoltageEventStatus), (12 bytes).
    Removing systick.o(i.SysTickDisable), (14 bytes).
    Removing systick.o(i.SysTickIntDisable), (14 bytes).
    Removing systick.o(i.SysTickIntRegister), (24 bytes).
    Removing systick.o(i.SysTickIntUnregister), (18 bytes).
    Removing systick.o(i.SysTickPeriodGet), (10 bytes).
    Removing systick.o(i.SysTickValueGet), (8 bytes).
    Removing timer.o(i.TimerADCEventGet), (4 bytes).
    Removing timer.o(i.TimerADCEventSet), (4 bytes).
    Removing timer.o(i.TimerClockSourceGet), (6 bytes).
    Removing timer.o(i.TimerClockSourceSet), (6 bytes).
    Removing timer.o(i.TimerControlEvent), (18 bytes).
    Removing timer.o(i.TimerControlLevel), (22 bytes).
    Removing timer.o(i.TimerControlStall), (22 bytes).
    Removing timer.o(i.TimerControlTrigger), (80 bytes).
    Removing timer.o(i.TimerControlWaitOnTrigger), (48 bytes).
    Removing timer.o(i.TimerDMAEventGet), (4 bytes).
    Removing timer.o(i.TimerDMAEventSet), (4 bytes).
    Removing timer.o(i.TimerDisable), (16 bytes).
    Removing timer.o(i.TimerIntDisable), (10 bytes).
    Removing timer.o(i.TimerIntRegister), (104 bytes).
    Removing timer.o(i.TimerIntStatus), (10 bytes).
    Removing timer.o(i.TimerIntUnregister), (104 bytes).
    Removing timer.o(i.TimerLoadGet), (10 bytes).
    Removing timer.o(i.TimerLoadGet64), (14 bytes).
    Removing timer.o(i.TimerLoadSet64), (6 bytes).
    Removing timer.o(i.TimerMatchGet), (10 bytes).
    Removing timer.o(i.TimerMatchGet64), (14 bytes).
    Removing timer.o(i.TimerMatchSet), (18 bytes).
    Removing timer.o(i.TimerMatchSet64), (6 bytes).
    Removing timer.o(i.TimerPrescaleGet), (10 bytes).
    Removing timer.o(i.TimerPrescaleMatchGet), (10 bytes).
    Removing timer.o(i.TimerPrescaleMatchSet), (18 bytes).
    Removing timer.o(i.TimerRTCDisable), (10 bytes).
    Removing timer.o(i.TimerRTCEnable), (10 bytes).
    Removing timer.o(i.TimerSynchronize), (4 bytes).
    Removing timer.o(i.TimerUpdateMode), (42 bytes).
    Removing timer.o(i.TimerValueGet), (10 bytes).
    Removing timer.o(i.TimerValueGet64), (14 bytes).
    Removing timer.o(.constdata), (160 bytes).
    Removing uart.o(i.UART9BitAddrSend), (38 bytes).
    Removing uart.o(i.UART9BitAddrSet), (10 bytes).
    Removing uart.o(i.UART9BitDisable), (14 bytes).
    Removing uart.o(i.UART9BitEnable), (14 bytes).
    Removing uart.o(i.UARTBreakCtl), (18 bytes).
    Removing uart.o(i.UARTBusy), (8 bytes).
    Removing uart.o(i.UARTCharGet), (12 bytes).
    Removing uart.o(i.UARTCharGetNonBlocking), (16 bytes).
    Removing uart.o(i.UARTCharPutNonBlocking), (16 bytes).
    Removing uart.o(i.UARTCharsAvail), (10 bytes).
    Removing uart.o(i.UARTClockSourceGet), (6 bytes).
    Removing uart.o(i.UARTConfigGetExpClk), (46 bytes).
    Removing uart.o(i.UARTConfigSetExpClk), (110 bytes).
    Removing uart.o(i.UARTDMADisable), (10 bytes).
    Removing uart.o(i.UARTDMAEnable), (8 bytes).
    Removing uart.o(i.UARTDisable), (30 bytes).
    Removing uart.o(i.UARTDisableSIR), (10 bytes).
    Removing uart.o(i.UARTEnable), (20 bytes).
    Removing uart.o(i.UARTEnableSIR), (18 bytes).
    Removing uart.o(i.UARTFIFODisable), (10 bytes).
    Removing uart.o(i.UARTFIFOEnable), (10 bytes).
    Removing uart.o(i.UARTFIFOLevelGet), (16 bytes).
    Removing uart.o(i.UARTFIFOLevelSet), (6 bytes).
    Removing uart.o(i.UARTFlowControlGet), (8 bytes).
    Removing uart.o(i.UARTFlowControlSet), (12 bytes).
    Removing uart.o(i.UARTIntClear), (4 bytes).
    Removing uart.o(i.UARTIntDisable), (10 bytes).
    Removing uart.o(i.UARTIntEnable), (8 bytes).
    Removing uart.o(i.UARTIntRegister), (88 bytes).
    Removing uart.o(i.UARTIntStatus), (10 bytes).
    Removing uart.o(i.UARTIntUnregister), (88 bytes).
    Removing uart.o(i.UARTLoopbackEnable), (10 bytes).
    Removing uart.o(i.UARTModemControlClear), (14 bytes).
    Removing uart.o(i.UARTModemControlGet), (8 bytes).
    Removing uart.o(i.UARTModemControlSet), (12 bytes).
    Removing uart.o(i.UARTModemStatusGet), (10 bytes).
    Removing uart.o(i.UARTParityModeGet), (8 bytes).
    Removing uart.o(i.UARTParityModeSet), (12 bytes).
    Removing uart.o(i.UARTRxErrorClear), (6 bytes).
    Removing uart.o(i.UARTRxErrorGet), (8 bytes).
    Removing uart.o(i.UARTSmartCardDisable), (10 bytes).
    Removing uart.o(i.UARTSmartCardEnable), (22 bytes).
    Removing uart.o(i.UARTSpaceAvail), (10 bytes).
    Removing uart.o(i.UARTTxIntModeGet), (8 bytes).
    Removing uart.o(i.UARTTxIntModeSet), (12 bytes).
    Removing uart.o(.constdata), (128 bytes).

253 unused section(s) (total 8612 bytes) removed from the image.

==============================================================================

Image Symbol Table

    Local Symbols

    Symbol Name                              Value     Ov Type        Size  Object(Section)

    RESET                                    0x00000000   Section      648  startup_rvmdk.o(RESET)
    ../clib/angel/boardlib.s                 0x00000000   Number         0  boardinit3.o ABSOLUTE
    ../clib/angel/boardlib.s                 0x00000000   Number         0  boardinit2.o ABSOLUTE
    ../clib/angel/boardlib.s                 0x00000000   Number         0  boardinit1.o ABSOLUTE
    ../clib/angel/boardlib.s                 0x00000000   Number         0  boardshut.o ABSOLUTE
    ../clib/angel/dczerorl.s                 0x00000000   Number         0  __dczerorl.o ABSOLUTE
    ../clib/angel/handlers.s                 0x00000000   Number         0  __scatter_zi.o ABSOLUTE
    ../clib/angel/kernel.s                   0x00000000   Number         0  rtexit2.o ABSOLUTE
    ../clib/angel/kernel.s                   0x00000000   Number         0  rtexit.o ABSOLUTE
    ../clib/angel/kernel.s                   0x00000000   Number         0  __rtentry2.o ABSOLUTE
    ../clib/angel/kernel.s                   0x00000000   Number         0  __rtentry.o ABSOLUTE
    ../clib/angel/kernel.s                   0x00000000   Number         0  __rtentry4.o ABSOLUTE
    ../clib/angel/rt.s                       0x00000000   Number         0  rt_locale.o ABSOLUTE
    ../clib/angel/rt.s                       0x00000000   Number         0  rt_locale_intlibspace.o ABSOLUTE
    ../clib/angel/rt.s                       0x00000000   Number         0  rt_raise.o ABSOLUTE
    ../clib/angel/scatter.s                  0x00000000   Number         0  __scatter.o ABSOLUTE
    ../clib/angel/startup.s                  0x00000000   Number         0  __main.o ABSOLUTE
    ../clib/angel/sys.s                      0x00000000   Number         0  indicate_semi.o ABSOLUTE
    ../clib/angel/sys.s                      0x00000000   Number         0  use_no_semi.o ABSOLUTE
    ../clib/angel/sys.s                      0x00000000   Number         0  sys_stackheap_outer.o ABSOLUTE
    ../clib/angel/sys.s                      0x00000000   Number         0  libspace.o ABSOLUTE
    ../clib/angel/sysapp.c                   0x00000000   Number         0  sys_command.o ABSOLUTE
    ../clib/armsys.c                         0x00000000   Number         0  argv_veneer.o ABSOLUTE
    ../clib/armsys.c                         0x00000000   Number         0  _get_argv_nomalloc.o ABSOLUTE
    ../clib/armsys.c                         0x00000000   Number         0  no_argv.o ABSOLUTE
    ../clib/armsys.c                         0x00000000   Number         0  argv_veneer.o ABSOLUTE
    ../clib/bigflt.c                         0x00000000   Number         0  bigflt0.o ABSOLUTE
    ../clib/btod.s                           0x00000000   Number         0  btod.o ABSOLUTE
    ../clib/heapalloc.c                      0x00000000   Number         0  hrguard.o ABSOLUTE
    ../clib/heapaux.c                        0x00000000   Number         0  heapauxi.o ABSOLUTE
    ../clib/libinit.s                        0x00000000   Number         0  libinit2.o ABSOLUTE
    ../clib/libinit.s                        0x00000000   Number         0  libshutdown2.o ABSOLUTE
    ../clib/libinit.s                        0x00000000   Number         0  libinit.o ABSOLUTE
    ../clib/libinit.s                        0x00000000   Number         0  libshutdown.o ABSOLUTE
    ../clib/locale.s                         0x00000000   Number         0  lc_numeric_c.o ABSOLUTE
    ../clib/longlong.s                       0x00000000   Number         0  lludiv10.o ABSOLUTE
    ../clib/memcpset.s                       0x00000000   Number         0  strcmpv7m.o ABSOLUTE
    ../clib/misc.s                           0x00000000   Number         0  printf_stubs.o ABSOLUTE
    ../clib/printf.c                         0x00000000   Number         0  _printf_char.o ABSOLUTE
    ../clib/printf.c                         0x00000000   Number         0  noretval__2printf.o ABSOLUTE
    ../clib/printf.c                         0x00000000   Number         0  _printf_char_file.o ABSOLUTE
    ../clib/printf.c                         0x00000000   Number         0  __printf_flags_ss_wp.o ABSOLUTE
    ../clib/printf.c                         0x00000000   Number         0  __printf_flags_wp.o ABSOLUTE
    ../clib/printf.c                         0x00000000   Number         0  __printf_wp.o ABSOLUTE
    ../clib/printf.c                         0x00000000   Number         0  _printf_intcommon.o ABSOLUTE
    ../clib/printf.c                         0x00000000   Number         0  __printf_flags_ss.o ABSOLUTE
    ../clib/printf.c                         0x00000000   Number         0  __printf_ss.o ABSOLUTE
    ../clib/printf.c                         0x00000000   Number         0  __printf_flags.o ABSOLUTE
    ../clib/printf.c                         0x00000000   Number         0  _printf_str.o ABSOLUTE
    ../clib/printf.c                         0x00000000   Number         0  __printf.o ABSOLUTE
    ../clib/printf.c                         0x00000000   Number         0  __2printf.o ABSOLUTE
    ../clib/printf.c                         0x00000000   Number         0  __printf_ss_wp.o ABSOLUTE
    ../clib/printf.c                         0x00000000   Number         0  _printf_fp_infnan.o ABSOLUTE
    ../clib/printf.c                         0x00000000   Number         0  _printf_char_common.o ABSOLUTE
    ../clib/printf.c                         0x00000000   Number         0  __printf_nopercent.o ABSOLUTE
    ../clib/printf.c                         0x00000000   Number         0  _printf_dec.o ABSOLUTE
    ../clib/printf.c                         0x00000000   Number         0  _printf_fp_dec.o ABSOLUTE
    ../clib/printf_percent.s                 0x00000000   Number         0  _printf_d.o ABSOLUTE
    ../clib/printf_percent.s                 0x00000000   Number         0  _printf_f.o ABSOLUTE
    ../clib/printf_percent.s                 0x00000000   Number         0  _printf_percent.o ABSOLUTE
    ../clib/printf_percent.s                 0x00000000   Number         0  _printf_s.o ABSOLUTE
    ../clib/printf_percent.s                 0x00000000   Number         0  _printf_c.o ABSOLUTE
    ../clib/printf_percent.s                 0x00000000   Number         0  _printf_percent_end.o ABSOLUTE
    ../clib/signal.c                         0x00000000   Number         0  defsig_exit.o ABSOLUTE
    ../clib/signal.c                         0x00000000   Number         0  defsig_general.o ABSOLUTE
    ../clib/signal.c                         0x00000000   Number         0  __raise.o ABSOLUTE
    ../clib/signal.c                         0x00000000   Number         0  defsig_rtmem_inner.o ABSOLUTE
    ../clib/signal.c                         0x00000000   Number         0  defsig_abrt_inner.o ABSOLUTE
    ../clib/signal.c                         0x00000000   Number         0  defsig_rtmem_outer.o ABSOLUTE
    ../clib/signal.c                         0x00000000   Number         0  defsig_rtmem_formal.o ABSOLUTE
    ../clib/signal.c                         0x00000000   Number         0  defsig_other.o ABSOLUTE
    ../clib/signal.c                         0x00000000   Number         0  defsig_segv_inner.o ABSOLUTE
    ../clib/signal.c                         0x00000000   Number         0  defsig_cppl_inner.o ABSOLUTE
    ../clib/signal.c                         0x00000000   Number         0  defsig_pvfn_inner.o ABSOLUTE
    ../clib/signal.c                         0x00000000   Number         0  defsig_stak_inner.o ABSOLUTE
    ../clib/signal.c                         0x00000000   Number         0  defsig_rtred_inner.o ABSOLUTE
    ../clib/signal.c                         0x00000000   Number         0  defsig_fpe_inner.o ABSOLUTE
    ../clib/signal.s                         0x00000000   Number         0  defsig.o ABSOLUTE
    ../clib/stdio.c                          0x00000000   Number         0  getc.o ABSOLUTE
    ../clib/stdio.c                          0x00000000   Number         0  puts.o ABSOLUTE
    ../clib/stdlib.c                         0x00000000   Number         0  exit.o ABSOLUTE
    ../fplib/d2f.s                           0x00000000   Number         0  d2f.o ABSOLUTE
    ../fplib/daddsub.s                       0x00000000   Number         0  daddsub_clz.o ABSOLUTE
    ../fplib/dcmpi.s                         0x00000000   Number         0  dcmpi.o ABSOLUTE
    ../fplib/ddiv.s                          0x00000000   Number         0  ddiv.o ABSOLUTE
    ../fplib/dflt.s                          0x00000000   Number         0  dflt_clz.o ABSOLUTE
    ../fplib/dleqf.s                         0x00000000   Number         0  dleqf.o ABSOLUTE
    ../fplib/dmul.s                          0x00000000   Number         0  dmul.o ABSOLUTE
    ../fplib/dnaninf.s                       0x00000000   Number         0  dnaninf.o ABSOLUTE
    ../fplib/dretinf.s                       0x00000000   Number         0  dretinf.o ABSOLUTE
    ../fplib/f2d.s                           0x00000000   Number         0  f2d.o ABSOLUTE
    ../fplib/fnaninf.s                       0x00000000   Number         0  fnaninf.o ABSOLUTE
    ../fplib/fpinit.s                        0x00000000   Number         0  fpinit.o ABSOLUTE
    ../fplib/fretinf.s                       0x00000000   Number         0  fretinf.o ABSOLUTE
    ../fplib/istatus.s                       0x00000000   Number         0  istatus.o ABSOLUTE
    ../fplib/printf1.s                       0x00000000   Number         0  printf1.o ABSOLUTE
    ../fplib/usenofp.s                       0x00000000   Number         0  usenofp.o ABSOLUTE
    ../mathlib/fpclassify.c                  0x00000000   Number         0  fpclassify.o ABSOLUTE
    Source\ADMulti.c                         0x00000000   Number         0  admulti.o ABSOLUTE
    Source\ActivateShooter.c                 0x00000000   Number         0  activateshooter.o ABSOLUTE
    Source\Camera.c                          0x00000000   Number         0  camera.o ABSOLUTE
    Source\Campaigning.c                     0x00000000   Number         0  campaigning.o ABSOLUTE
    Source\Cannon.c                          0x00000000   Number         0  cannon.o ABSOLUTE
    Source\CaptureStation.c                  0x00000000   Number         0  capturestation.o ABSOLUTE
    Source\ES_CheckEvents.c                  0x00000000   Number         0  es_checkevents.o ABSOLUTE
    Source\ES_DeferRecall.c                  0x00000000   Number         0  es_deferrecall.o ABSOLUTE
    Source\ES_Framework.c                    0x00000000   Number         0  es_framework.o ABSOLUTE
    Source\ES_LookupTables.c                 0x00000000   Number         0  es_lookuptables.o ABSOLUTE
    Source\ES_Port.c                         0x00000000   Number         0  es_port.o ABSOLUTE
    Source\ES_PostList.c                     0x00000000   Number         0  es_postlist.o ABSOLUTE
    Source\ES_Queue.c                        0x00000000   Number         0  es_queue.o ABSOLUTE
    Source\ES_ShortTimer.c                   0x00000000   Number         0  es_shorttimer.o ABSOLUTE
    Source\ES_Timers.c                       0x00000000   Number         0  es_timers.o ABSOLUTE
    Source\EventCheckers.c                   0x00000000   Number         0  eventcheckers.o ABSOLUTE
    Source\FollowLine.c                      0x00000000   Number         0  followline.o ABSOLUTE
    Source\MotorDrive.c                      0x00000000   Number         0  motordrive.o ABSOLUTE
    Source\PWM10Tiva.c                       0x00000000   Number         0  pwm10tiva.o ABSOLUTE
    Source\SendBytesStatus.c                 0x00000000   Number         0  sendbytesstatus.o ABSOLUTE
    Source\Servo.c                           0x00000000   Number         0  servo.o ABSOLUTE
    Source\StatusPAC.c                       0x00000000   Number         0  statuspac.o ABSOLUTE
    Source\TestHarnessService0.c             0x00000000   Number         0  testharnessservice0.o ABSOLUTE
    Source\init_all.c                        0x00000000   Number         0  init_all.o ABSOLUTE
    Source\main.c                            0x00000000   Number         0  main.o ABSOLUTE
    Source\retarget.c                        0x00000000   Number         0  retarget.o ABSOLUTE
    Source\strategy.c                        0x00000000   Number         0  strategy.o ABSOLUTE
    Source\termio.c                          0x00000000   Number         0  termio.o ABSOLUTE
    Source\uartstdio.c                       0x00000000   Number         0  uartstdio.o ABSOLUTE
    Source\ultrasonic.c                      0x00000000   Number         0  ultrasonic.o ABSOLUTE
    StartUp\startup_rvmdk.S                  0x00000000   Number         0  startup_rvmdk.o ABSOLUTE
    cpu.c                                    0x00000000   Number         0  cpu.o ABSOLUTE
    cpu.c                                    0x00000000   Number         0  cpu.o ABSOLUTE
    dc.s                                     0x00000000   Number         0  dc.o ABSOLUTE
    gpio.c                                   0x00000000   Number         0  gpio.o ABSOLUTE
    interrupt.c                              0x00000000   Number         0  interrupt.o ABSOLUTE
    pwm.c                                    0x00000000   Number         0  pwm.o ABSOLUTE
    sysctl.c                                 0x00000000   Number         0  sysctl.o ABSOLUTE
    sysctl.c                                 0x00000000   Number         0  sysctl.o ABSOLUTE
    systick.c                                0x00000000   Number         0  systick.o ABSOLUTE
    timer.c                                  0x00000000   Number         0  timer.o ABSOLUTE
    uart.c                                   0x00000000   Number         0  uart.o ABSOLUTE
    $v0                                      0x0000026c   Number         0  startup_rvmdk.o(RESET)
    NmiSR                                    0x00000281   Thumb Code     0  startup_rvmdk.o(RESET)
    FaultISR                                 0x00000283   Thumb Code     0  startup_rvmdk.o(RESET)
    IntDefaultHandler                        0x00000285   Thumb Code     0  startup_rvmdk.o(RESET)
    !!!main                                  0x00000288   Section        8  __main.o(!!!main)
    !!!scatter                               0x00000290   Section       52  __scatter.o(!!!scatter)
    !!dczerorl                               0x000002c4   Section       58  __dczerorl.o(!!dczerorl)
    !!handler_zi                             0x00000300   Section       28  __scatter_zi.o(!!handler_zi)
    .ARM.Collect$$_printf_percent$$00000000  0x0000031c   Section        0  _printf_percent.o(.ARM.Collect$$_printf_percent$$00000000)
    .ARM.Collect$$_printf_percent$$00000003  0x0000031c   Section        6  _printf_f.o(.ARM.Collect$$_printf_percent$$00000003)
    .ARM.Collect$$_printf_percent$$00000009  0x00000322   Section        6  _printf_d.o(.ARM.Collect$$_printf_percent$$00000009)
    .ARM.Collect$$_printf_percent$$00000013  0x00000328   Section        6  _printf_c.o(.ARM.Collect$$_printf_percent$$00000013)
    .ARM.Collect$$_printf_percent$$00000014  0x0000032e   Section        6  _printf_s.o(.ARM.Collect$$_printf_percent$$00000014)
    .ARM.Collect$$_printf_percent$$00000017  0x00000334   Section        4  _printf_percent_end.o(.ARM.Collect$$_printf_percent$$00000017)
    .ARM.Collect$$libinit$$00000000          0x00000338   Section        2  libinit.o(.ARM.Collect$$libinit$$00000000)
    .ARM.Collect$$libinit$$00000001          0x0000033a   Section        4  libinit2.o(.ARM.Collect$$libinit$$00000001)
    .ARM.Collect$$libinit$$00000004          0x0000033e   Section        0  libinit2.o(.ARM.Collect$$libinit$$00000004)
    .ARM.Collect$$libinit$$0000000A          0x0000033e   Section        0  libinit2.o(.ARM.Collect$$libinit$$0000000A)
    .ARM.Collect$$libinit$$0000000C          0x0000033e   Section        0  libinit2.o(.ARM.Collect$$libinit$$0000000C)
    .ARM.Collect$$libinit$$0000000E          0x0000033e   Section        0  libinit2.o(.ARM.Collect$$libinit$$0000000E)
    .ARM.Collect$$libinit$$0000000F          0x0000033e   Section        6  libinit2.o(.ARM.Collect$$libinit$$0000000F)
    .ARM.Collect$$libinit$$00000011          0x00000344   Section        0  libinit2.o(.ARM.Collect$$libinit$$00000011)
    .ARM.Collect$$libinit$$00000013          0x00000344   Section        0  libinit2.o(.ARM.Collect$$libinit$$00000013)
    .ARM.Collect$$libinit$$00000015          0x00000344   Section        0  libinit2.o(.ARM.Collect$$libinit$$00000015)
    .ARM.Collect$$libinit$$00000016          0x00000344   Section       10  libinit2.o(.ARM.Collect$$libinit$$00000016)
    .ARM.Collect$$libinit$$00000017          0x0000034e   Section        0  libinit2.o(.ARM.Collect$$libinit$$00000017)
    .ARM.Collect$$libinit$$00000019          0x0000034e   Section        0  libinit2.o(.ARM.Collect$$libinit$$00000019)
    .ARM.Collect$$libinit$$0000001B          0x0000034e   Section        0  libinit2.o(.ARM.Collect$$libinit$$0000001B)
    .ARM.Collect$$libinit$$0000001D          0x0000034e   Section        0  libinit2.o(.ARM.Collect$$libinit$$0000001D)
    .ARM.Collect$$libinit$$0000001F          0x0000034e   Section        0  libinit2.o(.ARM.Collect$$libinit$$0000001F)
    .ARM.Collect$$libinit$$00000021          0x0000034e   Section        0  libinit2.o(.ARM.Collect$$libinit$$00000021)
    .ARM.Collect$$libinit$$00000023          0x0000034e   Section        0  libinit2.o(.ARM.Collect$$libinit$$00000023)
    .ARM.Collect$$libinit$$00000025          0x0000034e   Section        0  libinit2.o(.ARM.Collect$$libinit$$00000025)
    .ARM.Collect$$libinit$$0000002C          0x0000034e   Section        0  libinit2.o(.ARM.Collect$$libinit$$0000002C)
    .ARM.Collect$$libinit$$0000002E          0x0000034e   Section        0  libinit2.o(.ARM.Collect$$libinit$$0000002E)
    .ARM.Collect$$libinit$$00000030          0x0000034e   Section        0  libinit2.o(.ARM.Collect$$libinit$$00000030)
    .ARM.Collect$$libinit$$00000032          0x0000034e   Section        0  libinit2.o(.ARM.Collect$$libinit$$00000032)
    .ARM.Collect$$libinit$$00000033          0x0000034e   Section        2  libinit2.o(.ARM.Collect$$libinit$$00000033)
    .ARM.Collect$$libshutdown$$00000000      0x00000350   Section        2  libshutdown.o(.ARM.Collect$$libshutdown$$00000000)
    .ARM.Collect$$libshutdown$$00000002      0x00000352   Section        0  libshutdown2.o(.ARM.Collect$$libshutdown$$00000002)
    .ARM.Collect$$libshutdown$$00000004      0x00000352   Section        0  libshutdown2.o(.ARM.Collect$$libshutdown$$00000004)
    .ARM.Collect$$libshutdown$$00000007      0x00000352   Section        0  libshutdown2.o(.ARM.Collect$$libshutdown$$00000007)
    .ARM.Collect$$libshutdown$$0000000A      0x00000352   Section        0  libshutdown2.o(.ARM.Collect$$libshutdown$$0000000A)
    .ARM.Collect$$libshutdown$$0000000C      0x00000352   Section        0  libshutdown2.o(.ARM.Collect$$libshutdown$$0000000C)
    .ARM.Collect$$libshutdown$$0000000F      0x00000352   Section        0  libshutdown2.o(.ARM.Collect$$libshutdown$$0000000F)
    .ARM.Collect$$libshutdown$$00000010      0x00000352   Section        2  libshutdown2.o(.ARM.Collect$$libshutdown$$00000010)
    .ARM.Collect$$rtentry$$00000000          0x00000354   Section        0  __rtentry.o(.ARM.Collect$$rtentry$$00000000)
    .ARM.Collect$$rtentry$$00000002          0x00000354   Section        0  __rtentry2.o(.ARM.Collect$$rtentry$$00000002)
    .ARM.Collect$$rtentry$$00000004          0x00000354   Section        6  __rtentry4.o(.ARM.Collect$$rtentry$$00000004)
    .ARM.Collect$$rtentry$$00000009          0x0000035a   Section        0  __rtentry2.o(.ARM.Collect$$rtentry$$00000009)
    .ARM.Collect$$rtentry$$0000000A          0x0000035a   Section        4  __rtentry2.o(.ARM.Collect$$rtentry$$0000000A)
    .ARM.Collect$$rtentry$$0000000C          0x0000035e   Section        0  __rtentry2.o(.ARM.Collect$$rtentry$$0000000C)
    .ARM.Collect$$rtentry$$0000000D          0x0000035e   Section        8  __rtentry2.o(.ARM.Collect$$rtentry$$0000000D)
    .ARM.Collect$$rtexit$$00000000           0x00000366   Section        2  rtexit.o(.ARM.Collect$$rtexit$$00000000)
    .ARM.Collect$$rtexit$$00000002           0x00000368   Section        0  rtexit2.o(.ARM.Collect$$rtexit$$00000002)
    .ARM.Collect$$rtexit$$00000003           0x00000368   Section        4  rtexit2.o(.ARM.Collect$$rtexit$$00000003)
    .ARM.Collect$$rtexit$$00000004           0x0000036c   Section        6  rtexit2.o(.ARM.Collect$$rtexit$$00000004)
    .emb_text                                0x00000374   Section        6  sysctl.o(.emb_text)
    $v0                                      0x00000374   Number         0  sysctl.o(.emb_text)
    .emb_text                                0x0000037c   Section       38  cpu.o(.emb_text)
    $v0                                      0x0000037c   Number         0  cpu.o(.emb_text)
    .text                                    0x000003a4   Section       24  startup_rvmdk.o(.text)
    $v0                                      0x000003a4   Number         0  startup_rvmdk.o(.text)
    .text                                    0x000003bc   Section        2  use_no_semi.o(.text)
    .text                                    0x000003c0   Section        0  noretval__2printf.o(.text)
    .text                                    0x000003d8   Section        0  _printf_str.o(.text)
    .text                                    0x0000042c   Section        0  _printf_dec.o(.text)
    .text                                    0x000004a4   Section        0  __printf_flags_wp.o(.text)
    .text                                    0x000005dc   Section        0  getc.o(.text)
    .text                                    0x000005e0   Section        0  puts.o(.text)
    .text                                    0x0000060c   Section        0  heapauxi.o(.text)
    .text                                    0x00000612   Section        0  _printf_intcommon.o(.text)
    .text                                    0x000006c4   Section        0  _printf_fp_dec.o(.text)
    _fp_digits                               0x000006c7   Thumb Code   428  _printf_fp_dec.o(.text)
    .text                                    0x00000ade   Section        0  _printf_char.o(.text)
    .text                                    0x00000b0c   Section        0  _printf_char_file.o(.text)
    .text                                    0x00000b30   Section        8  rt_locale_intlibspace.o(.text)
    .text                                    0x00000b38   Section      138  lludiv10.o(.text)
    .text                                    0x00000bc4   Section        0  _printf_char_common.o(.text)
    _printf_input_char                       0x00000bc5   Thumb Code    10  _printf_char_common.o(.text)
    .text                                    0x00000bf4   Section        0  _printf_fp_infnan.o(.text)
    .text                                    0x00000c74   Section        0  bigflt0.o(.text)
    .text                                    0x00000d50   Section        8  libspace.o(.text)
    .text                                    0x00000d58   Section       74  sys_stackheap_outer.o(.text)
    .text                                    0x00000da2   Section        0  exit.o(.text)
    .text                                    0x00000db4   Section      128  strcmpv7m.o(.text)
    CL$$btod_d2e                             0x00000e34   Section       62  btod.o(CL$$btod_d2e)
    CL$$btod_d2e_denorm_low                  0x00000e72   Section       70  btod.o(CL$$btod_d2e_denorm_low)
    CL$$btod_d2e_norm_op1                    0x00000eb8   Section       96  btod.o(CL$$btod_d2e_norm_op1)
    CL$$btod_div_common                      0x00000f18   Section      824  btod.o(CL$$btod_div_common)
    CL$$btod_e2e                             0x00001250   Section      198  btod.o(CL$$btod_e2e)
    CL$$btod_ediv                            0x00001316   Section       40  btod.o(CL$$btod_ediv)
    CL$$btod_emul                            0x0000133e   Section       40  btod.o(CL$$btod_emul)
    CL$$btod_mult_common                     0x00001366   Section      580  btod.o(CL$$btod_mult_common)
    i.ADC_MultiInit                          0x000015ac   Section        0  admulti.o(i.ADC_MultiInit)
    i.ADC_MultiRead                          0x00001674   Section        0  admulti.o(i.ADC_MultiRead)
    i.CPUgetPRIMASK_cpsid                    0x000016ac   Section        0  es_port.o(i.CPUgetPRIMASK_cpsid)
    i.CPUsetPRIMASK                          0x000016b4   Section        0  es_port.o(i.CPUsetPRIMASK)
    i.Check4Keystroke                        0x000016bc   Section        0  eventcheckers.o(i.Check4Keystroke)
    i.ConvertAngle                           0x0000170c   Section        0  servo.o(i.ConvertAngle)
    ConvertAngle                             0x0000170d   Thumb Code    14  servo.o(i.ConvertAngle)
    i.DuringStateFollowing                   0x0000171c   Section        0  followline.o(i.DuringStateFollowing)
    DuringStateFollowing                     0x0000171d   Thumb Code  1238  followline.o(i.DuringStateFollowing)
    i.ES_CheckUserEvents                     0x00001bf4   Section        0  es_checkevents.o(i.ES_CheckUserEvents)
    i.ES_DeQueue                             0x00001c1c   Section        0  es_queue.o(i.ES_DeQueue)
    i.ES_EnQueueFIFO                         0x00001c80   Section        0  es_queue.o(i.ES_EnQueueFIFO)
    i.ES_EnQueueLIFO                         0x00001cd8   Section        0  es_queue.o(i.ES_EnQueueLIFO)
    i.ES_GetMSBitSet                         0x00001d30   Section        0  es_lookuptables.o(i.ES_GetMSBitSet)
    i.ES_InitQueue                           0x00001d64   Section        0  es_queue.o(i.ES_InitQueue)
    i.ES_Initialize                          0x00001d74   Section        0  es_framework.o(i.ES_Initialize)
    i.ES_PostToService                       0x00001dc0   Section        0  es_framework.o(i.ES_PostToService)
    i.ES_PostToServiceLIFO                   0x00001df8   Section        0  es_framework.o(i.ES_PostToServiceLIFO)
    i.ES_RecallEvents                        0x00001e30   Section        0  es_deferrecall.o(i.ES_RecallEvents)
    i.ES_Run                                 0x00001e60   Section        0  es_framework.o(i.ES_Run)
    i.ES_ShortTimerInit                      0x00001ed8   Section        0  es_shorttimer.o(i.ES_ShortTimerInit)
    i.ES_ShortTimerStart                     0x00001f10   Section        0  es_shorttimer.o(i.ES_ShortTimerStart)
    i.ES_Timer_GetTime                       0x00001f70   Section        0  es_timers.o(i.ES_Timer_GetTime)
    i.ES_Timer_Init                          0x00001f74   Section        0  es_timers.o(i.ES_Timer_Init)
    i.ES_Timer_InitTimer                     0x00001f78   Section        0  es_timers.o(i.ES_Timer_InitTimer)
    i.ES_Timer_Tick_Resp                     0x00001fb4   Section        0  es_timers.o(i.ES_Timer_Tick_Resp)
    i.GPIODirModeSet                         0x0000202c   Section        0  gpio.o(i.GPIODirModeSet)
    i.GPIOPadConfigSet                       0x00002054   Section        0  gpio.o(i.GPIOPadConfigSet)
    i.GPIOPinConfigure                       0x0000218c   Section        0  gpio.o(i.GPIOPinConfigure)
    i.GPIOPinTypeGPIOOutput                  0x000021d0   Section        0  gpio.o(i.GPIOPinTypeGPIOOutput)
    i.GPIOPinTypePWM                         0x000021ec   Section        0  gpio.o(i.GPIOPinTypePWM)
    i.GPIOPinTypeUART                        0x00002208   Section        0  gpio.o(i.GPIOPinTypeUART)
    i.GPIOPinWrite                           0x00002224   Section        0  gpio.o(i.GPIOPinWrite)
    i.GetLineCenter                          0x0000222c   Section        0  camera.o(i.GetLineCenter)
    i.IRInputCapture                         0x00002438   Section        0  init_all.o(i.IRInputCapture)
    i.ISRHallPC4                             0x000024ec   Section        0  init_all.o(i.ISRHallPC4)
    i.ISRHallPC6                             0x00002558   Section        0  init_all.o(i.ISRHallPC6)
    i.ISRStatusPAC                           0x000025c4   Section        0  sendbytesstatus.o(i.ISRStatusPAC)
    i.ISRUltraResponse                       0x000025e4   Section        0  ultrasonic.o(i.ISRUltraResponse)
    i.InitCampaigningSM                      0x00002648   Section        0  campaigning.o(i.InitCampaigningSM)
    i.InitCannon                             0x00002664   Section        0  cannon.o(i.InitCannon)
    i.InitIRInputCapture                     0x00002674   Section        0  init_all.o(i.InitIRInputCapture)
    InitIRInputCapture                       0x00002675   Thumb Code   140  init_all.o(i.InitIRInputCapture)
    i.InitPWM                                0x00002710   Section        0  ultrasonic.o(i.InitPWM)
    i.InitPins                               0x000027c8   Section        0  statuspac.o(i.InitPins)
    i.InitStatusPAC                          0x00002800   Section        0  statuspac.o(i.InitStatusPAC)
    i.InitStrategySM                         0x00002820   Section        0  strategy.o(i.InitStrategySM)
    i.InitTestHarnessService0                0x00002864   Section        0  testharnessservice0.o(i.InitTestHarnessService0)
    i.InitUltra                              0x000028ec   Section        0  ultrasonic.o(i.InitUltra)
    i.InitUltrasonic                         0x00002930   Section        0  init_all.o(i.InitUltrasonic)
    InitUltrasonic                           0x00002931   Thumb Code   152  init_all.o(i.InitUltrasonic)
    i.InitializeCamera                       0x000029dc   Section        0  camera.o(i.InitializeCamera)
    i.InitializeSPI                          0x00002a38   Section        0  init_all.o(i.InitializeSPI)
    InitializeSPI                            0x00002a39   Thumb Code   198  init_all.o(i.InitializeSPI)
    i.InitializeTimer                        0x00002b1c   Section        0  camera.o(i.InitializeTimer)
    i.IntEnable                              0x00002bc4   Section        0  interrupt.o(i.IntEnable)
    i.IntMasterEnable                        0x00002c28   Section        0  interrupt.o(i.IntMasterEnable)
    i.PWMGenConfigure                        0x00002c36   Section        0  pwm.o(i.PWMGenConfigure)
    i.PWMGenEnable                           0x00002c5c   Section        0  pwm.o(i.PWMGenEnable)
    i.PWMGenPeriodSet                        0x00002c66   Section        0  pwm.o(i.PWMGenPeriodSet)
    i.PWMOutputState                         0x00002c78   Section        0  pwm.o(i.PWMOutputState)
    i.PWMPulseWidthSet                       0x00002c88   Section        0  pwm.o(i.PWMPulseWidthSet)
    i.PWMSyncUpdate                          0x00002ca8   Section        0  pwm.o(i.PWMSyncUpdate)
    i.PWM_TIVA_Init                          0x00002cac   Section        0  pwm10tiva.o(i.PWM_TIVA_Init)
    i.PWM_TIVA_SetDuty                       0x00002f88   Section        0  pwm10tiva.o(i.PWM_TIVA_SetDuty)
    i.PWM_TIVA_SetFreq                       0x0000300c   Section        0  pwm10tiva.o(i.PWM_TIVA_SetFreq)
    i.PWM_TIVA_SetPeriod                     0x00003048   Section        0  pwm10tiva.o(i.PWM_TIVA_SetPeriod)
    i.PostCamera                             0x000030bc   Section        0  camera.o(i.PostCamera)
    i.PostCampaigningSM                      0x000030d0   Section        0  campaigning.o(i.PostCampaigningSM)
    i.PostCannon                             0x000030e4   Section        0  cannon.o(i.PostCannon)
    i.PostStatusPAC                          0x000030f8   Section        0  statuspac.o(i.PostStatusPAC)
    i.PostStrategySM                         0x0000310c   Section        0  strategy.o(i.PostStrategySM)
    i.PostUltra                              0x00003120   Section        0  ultrasonic.o(i.PostUltra)
    i.ProcessRequestResponse                 0x00003134   Section        0  capturestation.o(i.ProcessRequestResponse)
    i.ReadFIFO                               0x00003164   Section        0  sendbytesstatus.o(i.ReadFIFO)
    i.ReturnLineCenter                       0x00003170   Section        0  camera.o(i.ReturnLineCenter)
    i.ReturnLineFound                        0x0000317c   Section        0  camera.o(i.ReturnLineFound)
    i.RunCamera                              0x00003188   Section        0  camera.o(i.RunCamera)
    i.RunCampaigningSM                       0x000032b4   Section        0  campaigning.o(i.RunCampaigningSM)
    i.RunCannon                              0x0000354c   Section        0  cannon.o(i.RunCannon)
    i.RunCaptureStation                      0x00003604   Section        0  capturestation.o(i.RunCaptureStation)
    i.RunFollowLine                          0x000037b8   Section        0  followline.o(i.RunFollowLine)
    i.RunSendBytesStatus                     0x0000396c   Section        0  sendbytesstatus.o(i.RunSendBytesStatus)
    i.RunShooter                             0x00003bbc   Section        0  activateshooter.o(i.RunShooter)
    i.RunStatusPAC                           0x00003da4   Section        0  statuspac.o(i.RunStatusPAC)
    i.RunStrategySM                          0x00003ec0   Section        0  strategy.o(i.RunStrategySM)
    i.RunTestHarnessService0                 0x000045bc   Section        0  testharnessservice0.o(i.RunTestHarnessService0)
    i.RunUltra                               0x000047e8   Section        0  ultrasonic.o(i.RunUltra)
    i.SetPWM                                 0x00004800   Section        0  ultrasonic.o(i.SetPWM)
    i.ShortTimerAHandler                     0x000048a0   Section        0  es_shorttimer.o(i.ShortTimerAHandler)
    i.ShortTimerBHandler                     0x000048d8   Section        0  es_shorttimer.o(i.ShortTimerBHandler)
    i.StartCampaigningSM                     0x00004914   Section        0  campaigning.o(i.StartCampaigningSM)
    i.StartCaptureStation                    0x00004930   Section        0  capturestation.o(i.StartCaptureStation)
    i.StartFollowLine                        0x0000494c   Section        0  followline.o(i.StartFollowLine)
    i.StartSendBytesStatus                   0x0000497c   Section        0  sendbytesstatus.o(i.StartSendBytesStatus)
    i.StartShooter                           0x000049a0   Section        0  activateshooter.o(i.StartShooter)
    i.StartStatusPAC                         0x000049c4   Section        0  statuspac.o(i.StartStatusPAC)
    i.StopMotors                             0x000049e0   Section        0  motordrive.o(i.StopMotors)
    i.SysCtlClockGet                         0x000049f0   Section        0  sysctl.o(i.SysCtlClockGet)
    i.SysCtlClockSet                         0x00004b44   Section        0  sysctl.o(i.SysCtlClockSet)
    i.SysCtlPWMClockSet                      0x00004c64   Section        0  sysctl.o(i.SysCtlPWMClockSet)
    i.SysCtlPeripheralEnable                 0x00004c78   Section        0  sysctl.o(i.SysCtlPeripheralEnable)
    i.SysCtlPeripheralReady                  0x00004ca0   Section        0  sysctl.o(i.SysCtlPeripheralReady)
    i.SysTickEnable                          0x00004ccc   Section        0  systick.o(i.SysTickEnable)
    i.SysTickIntEnable                       0x00004cda   Section        0  systick.o(i.SysTickIntEnable)
    i.SysTickIntHandler                      0x00004ce8   Section        0  es_port.o(i.SysTickIntHandler)
    i.SysTickPeriodSet                       0x00004cfc   Section        0  systick.o(i.SysTickPeriodSet)
    i.TERMIO_GetChar                         0x00004d06   Section        0  termio.o(i.TERMIO_GetChar)
    i.TERMIO_Init                            0x00004d0c   Section        0  termio.o(i.TERMIO_Init)
    i.TERMIO_PutChar                         0x00004d5c   Section        0  termio.o(i.TERMIO_PutChar)
    i.TimerConfigure                         0x00004d68   Section        0  timer.o(i.TimerConfigure)
    i.TimerEnable                            0x00004dc8   Section        0  timer.o(i.TimerEnable)
    i.TimerIntClear                          0x00004dd6   Section        0  timer.o(i.TimerIntClear)
    i.TimerIntEnable                         0x00004dda   Section        0  timer.o(i.TimerIntEnable)
    i.TimerLoadSet                           0x00004de2   Section        0  timer.o(i.TimerLoadSet)
    i.TimerPrescaleSet                       0x00004df4   Section        0  timer.o(i.TimerPrescaleSet)
    i.UARTCharPut                            0x00004e06   Section        0  uart.o(i.UARTCharPut)
    i.UARTClockSourceSet                     0x00004e12   Section        0  uart.o(i.UARTClockSourceSet)
    i.UARTStdioConfig                        0x00004e18   Section        0  uartstdio.o(i.UARTStdioConfig)
    i.UARTgetc                               0x00004e74   Section        0  uartstdio.o(i.UARTgetc)
    i.UpdatePWM                              0x00004e8c   Section        0  motordrive.o(i.UpdatePWM)
    i.WTimer3AISR                            0x00004eb4   Section        0  camera.o(i.WTimer3AISR)
    i.WTimer3BISR                            0x00004ed0   Section        0  camera.o(i.WTimer3BISR)
    i.WriteCameraServo                       0x00004f00   Section        0  servo.o(i.WriteCameraServo)
    i._HW_GetTickCount                       0x00004f10   Section        0  es_port.o(i._HW_GetTickCount)
    i._HW_Process_Pending_Ints               0x00004f1c   Section        0  es_port.o(i._HW_Process_Pending_Ints)
    i._HW_Timer_Init                         0x00004f3c   Section        0  es_port.o(i._HW_Timer_Init)
    i.__ARM_fpclassify                       0x00004f52   Section        0  fpclassify.o(i.__ARM_fpclassify)
    i._is_digit                              0x00004f82   Section        0  __printf_wp.o(i._is_digit)
    i._sys_exit                              0x00004f90   Section        0  retarget.o(i._sys_exit)
    i.disableHall                            0x00004f94   Section        0  init_all.o(i.disableHall)
    i.disableIR                              0x00004fc0   Section        0  init_all.o(i.disableIR)
    i.enableHall                             0x00004fe0   Section        0  init_all.o(i.enableHall)
    i.enableIR                               0x0000503c   Section        0  init_all.o(i.enableIR)
    i.ferror                                 0x00005058   Section        0  retarget.o(i.ferror)
    i.fgetc                                  0x0000505e   Section        0  retarget.o(i.fgetc)
    i.fputc                                  0x00005062   Section        0  retarget.o(i.fputc)
    i.getMyColor                             0x00005070   Section        0  strategy.o(i.getMyColor)
    i.getPartySwitch                         0x0000507c   Section        0  init_all.o(i.getPartySwitch)
    i.getPeriodFromHall                      0x0000508c   Section        0  init_all.o(i.getPeriodFromHall)
    i.getPollingStationCode                  0x000050d4   Section        0  strategy.o(i.getPollingStationCode)
    getPollingStationCode                    0x000050d5   Thumb Code   756  strategy.o(i.getPollingStationCode)
    i.getRBN                                 0x0000541c   Section        0  strategy.o(i.getRBN)
    getRBN                                   0x0000541d   Thumb Code     8  strategy.o(i.getRBN)
    i.initHallInputPC4                       0x00005428   Section        0  init_all.o(i.initHallInputPC4)
    initHallInputPC4                         0x00005429   Thumb Code   176  init_all.o(i.initHallInputPC4)
    i.initHallInputPC6                       0x000054e8   Section        0  init_all.o(i.initHallInputPC6)
    initHallInputPC6                         0x000054e9   Thumb Code   130  init_all.o(i.initHallInputPC6)
    i.initialize_all                         0x0000557c   Section        0  init_all.o(i.initialize_all)
    i.isResponseReady                        0x00005618   Section        0  capturestation.o(i.isResponseReady)
    i.kbhit                                  0x00005628   Section        0  termio.o(i.kbhit)
    i.main                                   0x0000563c   Section        0  main.o(i.main)
    i.processQueryResponse                   0x0000580c   Section        0  strategy.o(i.processQueryResponse)
    processQueryResponse                     0x0000580d   Thumb Code    78  strategy.o(i.processQueryResponse)
    i.querydistance                          0x00005860   Section        0  ultrasonic.o(i.querydistance)
    i.rotateClockwise                        0x0000586c   Section        0  motordrive.o(i.rotateClockwise)
    i.rotateCounterClockwise                 0x0000588c   Section        0  motordrive.o(i.rotateCounterClockwise)
    i.setDisplayLED                          0x000058ac   Section        0  init_all.o(i.setDisplayLED)
    i.turnOffLED                             0x000058f0   Section        0  init_all.o(i.turnOffLED)
    locale$$code                             0x00005910   Section       44  lc_numeric_c.o(locale$$code)
    x$fpl$d2f                                0x0000593c   Section       98  d2f.o(x$fpl$d2f)
    $v0                                      0x0000593c   Number         0  d2f.o(x$fpl$d2f)
    x$fpl$dadd                               0x000059a0   Section      336  daddsub_clz.o(x$fpl$dadd)
    $v0                                      0x000059a0   Number         0  daddsub_clz.o(x$fpl$dadd)
    _dadd1                                   0x000059b1   Thumb Code     0  daddsub_clz.o(x$fpl$dadd)
    x$fpl$dcmpinf                            0x00005af0   Section       24  dcmpi.o(x$fpl$dcmpinf)
    $v0                                      0x00005af0   Number         0  dcmpi.o(x$fpl$dcmpinf)
    x$fpl$ddiv                               0x00005b08   Section      688  ddiv.o(x$fpl$ddiv)
    $v0                                      0x00005b08   Number         0  ddiv.o(x$fpl$ddiv)
    ddiv_entry                               0x00005b0f   Thumb Code     0  ddiv.o(x$fpl$ddiv)
    x$fpl$dflt                               0x00005db8   Section       46  dflt_clz.o(x$fpl$dflt)
    $v0                                      0x00005db8   Number         0  dflt_clz.o(x$fpl$dflt)
    x$fpl$dfltu                              0x00005de6   Section       38  dflt_clz.o(x$fpl$dfltu)
    $v0                                      0x00005de6   Number         0  dflt_clz.o(x$fpl$dfltu)
    x$fpl$dleqf                              0x00005e0c   Section      120  dleqf.o(x$fpl$dleqf)
    $v0                                      0x00005e0c   Number         0  dleqf.o(x$fpl$dleqf)
    x$fpl$dmul                               0x00005e84   Section      340  dmul.o(x$fpl$dmul)
    $v0                                      0x00005e84   Number         0  dmul.o(x$fpl$dmul)
    x$fpl$dnaninf                            0x00005fd8   Section      156  dnaninf.o(x$fpl$dnaninf)
    $v0                                      0x00005fd8   Number         0  dnaninf.o(x$fpl$dnaninf)
    x$fpl$dretinf                            0x00006074   Section       12  dretinf.o(x$fpl$dretinf)
    $v0                                      0x00006074   Number         0  dretinf.o(x$fpl$dretinf)
    x$fpl$drsb                               0x00006080   Section       22  daddsub_clz.o(x$fpl$drsb)
    $v0                                      0x00006080   Number         0  daddsub_clz.o(x$fpl$drsb)
    x$fpl$dsub                               0x00006098   Section      468  daddsub_clz.o(x$fpl$dsub)
    $v0                                      0x00006098   Number         0  daddsub_clz.o(x$fpl$dsub)
    _dsub1                                   0x000060a9   Thumb Code     0  daddsub_clz.o(x$fpl$dsub)
    x$fpl$f2d                                0x0000626c   Section       86  f2d.o(x$fpl$f2d)
    $v0                                      0x0000626c   Number         0  f2d.o(x$fpl$f2d)
    x$fpl$fnaninf                            0x000062c2   Section      140  fnaninf.o(x$fpl$fnaninf)
    $v0                                      0x000062c2   Number         0  fnaninf.o(x$fpl$fnaninf)
    x$fpl$fpinit                             0x0000634e   Section       10  fpinit.o(x$fpl$fpinit)
    $v0                                      0x0000634e   Number         0  fpinit.o(x$fpl$fpinit)
    x$fpl$fretinf                            0x00006358   Section       10  fretinf.o(x$fpl$fretinf)
    $v0                                      0x00006358   Number         0  fretinf.o(x$fpl$fretinf)
    x$fpl$printf1                            0x00006362   Section        4  printf1.o(x$fpl$printf1)
    $v0                                      0x00006362   Number         0  printf1.o(x$fpl$printf1)
    x$fpl$usenofp                            0x00006366   Section        0  usenofp.o(x$fpl$usenofp)
    .constdata                               0x00006368   Section       10  statuspac.o(.constdata)
    .constdata                               0x00006374   Section       10  sendbytesstatus.o(.constdata)
    .constdata                               0x00006380   Section       10  capturestation.o(.constdata)
    .constdata                               0x0000638c   Section       10  campaigning.o(.constdata)
    .constdata                               0x00006398   Section       48  admulti.o(.constdata)
    HowMany2Mask                             0x00006398   Data          16  admulti.o(.constdata)
    HowMany2Mux                              0x000063a8   Data          16  admulti.o(.constdata)
    HowMany2CTL                              0x000063b8   Data          16  admulti.o(.constdata)
    .constdata                               0x000063c8   Section      100  pwm10tiva.o(.constdata)
    Channel2PWMconst                         0x000063c8   Data          40  pwm10tiva.o(.constdata)
    Channel2PWM_MOD                          0x000063f0   Data          40  pwm10tiva.o(.constdata)
    Group2GENconst                           0x00006418   Data          20  pwm10tiva.o(.constdata)
    .constdata                               0x0000642c   Section       10  activateshooter.o(.constdata)
    .constdata                               0x00006438   Section       10  followline.o(.constdata)
    .constdata                               0x00006444   Section        4  es_checkevents.o(.constdata)
    ES_EventList                             0x00006444   Data           4  es_checkevents.o(.constdata)
    .constdata                               0x00006448   Section      112  es_framework.o(.constdata)
    ServDescList                             0x00006448   Data          56  es_framework.o(.constdata)
    EventQueues                              0x00006480   Data          56  es_framework.o(.constdata)
    .constdata                               0x000064b8   Section       32  es_lookuptables.o(.constdata)
    .constdata                               0x000064d8   Section       15  es_lookuptables.o(.constdata)
    .constdata                               0x000064e8   Section       64  es_timers.o(.constdata)
    Timer2PostFunc                           0x000064e8   Data          64  es_timers.o(.constdata)
    .constdata                               0x00006528   Section       28  uartstdio.o(.constdata)
    g_pcHex                                  0x00006528   Data           4  uartstdio.o(.constdata)
    g_ui32UARTBase                           0x0000652c   Data          12  uartstdio.o(.constdata)
    g_ui32UARTPeriph                         0x00006538   Data          12  uartstdio.o(.constdata)
    .constdata                               0x00006544   Section      528  gpio.o(.constdata)
    g_ppui32GPIOIntMapBlizzard               0x00006544   Data         192  gpio.o(.constdata)
    g_ppui32GPIOIntMapSnowflake              0x00006604   Data         192  gpio.o(.constdata)
    g_pui32GPIOBaseAddrs                     0x000066c4   Data         144  gpio.o(.constdata)
    .constdata                               0x00006754   Section      268  interrupt.o(.constdata)
    g_pui32Priority                          0x00006754   Data          32  interrupt.o(.constdata)
    g_pui32Regs                              0x00006774   Data         156  interrupt.o(.constdata)
    g_pui32EnRegs                            0x00006810   Data          20  interrupt.o(.constdata)
    g_pui32Dii16Regs                         0x00006824   Data          20  interrupt.o(.constdata)
    g_pui32PendRegs                          0x00006838   Data          20  interrupt.o(.constdata)
    g_pui32UnpendRegs                        0x0000684c   Data          20  interrupt.o(.constdata)
    .constdata                               0x00006860   Section      452  sysctl.o(.constdata)
    g_pui32VCOFrequencies                    0x00006860   Data           8  sysctl.o(.constdata)
    g_pui32Xtals                             0x00006868   Data         108  sysctl.o(.constdata)
    g_pppui32XTALtoVCO                       0x000068d4   Data         288  sysctl.o(.constdata)
    g_sXTALtoMEMTIM                          0x000069f4   Data          48  sysctl.o(.constdata)
    .constdata                               0x00006a24   Section       17  __printf_flags_wp.o(.constdata)
    maptable                                 0x00006a24   Data          17  __printf_flags_wp.o(.constdata)
    .constdata                               0x00006a38   Section      148  bigflt0.o(.constdata)
    tenpwrs_x                                0x00006a38   Data          60  bigflt0.o(.constdata)
    tenpwrs_i                                0x00006a74   Data          64  bigflt0.o(.constdata)
    .conststring                             0x00006acc   Section       17  uartstdio.o(.conststring)
    locale$$data                             0x00006b00   Section       28  lc_numeric_c.o(locale$$data)
    __lcnum_c_name                           0x00006b04   Data           2  lc_numeric_c.o(locale$$data)
    __lcnum_c_start                          0x00006b0c   Data           0  lc_numeric_c.o(locale$$data)
    __lcnum_c_point                          0x00006b18   Data           0  lc_numeric_c.o(locale$$data)
    __lcnum_c_thousands                      0x00006b1a   Data           0  lc_numeric_c.o(locale$$data)
    __lcnum_c_grouping                       0x00006b1b   Data           0  lc_numeric_c.o(locale$$data)
    __lcnum_c_end                            0x00006b1c   Data           0  lc_numeric_c.o(locale$$data)
    .data                                    0x20000000   Section        3  testharnessservice0.o(.data)
    DeferredChar                             0x20000000   Data           1  testharnessservice0.o(.data)
    LEDvalue                                 0x20000001   Data           1  testharnessservice0.o(.data)
    MyPriority                               0x20000002   Data           1  testharnessservice0.o(.data)
    .data                                    0x20000003   Section        2  es_shorttimer.o(.data)
    Timer_A_Priority                         0x20000003   Data           1  es_shorttimer.o(.data)
    Timer_B_Priority                         0x20000004   Data           1  es_shorttimer.o(.data)
    .data                                    0x20000008   Section       45  strategy.o(.data)
    startedGame                              0x20000008   Data           1  strategy.o(.data)
    ShootingInProgress                       0x20000009   Data           1  strategy.o(.data)
    ShootingComplete                         0x2000000a   Data           1  strategy.o(.data)
    firstTimeFrequencyFound                  0x2000000b   Data           1  strategy.o(.data)
    LocationUpdated                          0x2000000c   Data           1  strategy.o(.data)
    NACK_COUNT                               0x2000000d   Data           1  strategy.o(.data)
    StationCaptured                          0x2000000e   Data           1  strategy.o(.data)
    myColor                                  0x2000000f   Data           1  strategy.o(.data)
    CapStationDontPoll                       0x20000010   Data           1  strategy.o(.data)
    PreviousLocation                         0x20000011   Data           1  strategy.o(.data)
    SS3                                      0x20000012   Data           1  strategy.o(.data)
    CurrentState                             0x20000013   Data           1  strategy.o(.data)
    ResponseReady                            0x20000014   Data           1  strategy.o(.data)
    RequestStatus                            0x20000015   Data           1  strategy.o(.data)
    ACK                                      0x20000016   Data           1  strategy.o(.data)
    RBN                                      0x20000017   Data           1  strategy.o(.data)
    LOC                                      0x20000018   Data           1  strategy.o(.data)
    MyPriority                               0x20000019   Data           1  strategy.o(.data)
    IsClockwise                              0x2000001a   Data           1  strategy.o(.data)
    BIG_TIMER_COUNT                          0x2000001c   Data           2  strategy.o(.data)
    errorInFrequency                         0x20000020   Data           4  strategy.o(.data)
    BigTimerCount                            0x20000024   Data           4  strategy.o(.data)
    PseudoRequest                            0x20000028   Data           4  strategy.o(.data)
    LocationList                             0x2000002c   Data           9  strategy.o(.data)
    .data                                    0x20000035   Section        3  statuspac.o(.data)
    CurrentState                             0x20000035   Data           1  statuspac.o(.data)
    MyPriority                               0x20000036   Data           1  statuspac.o(.data)
    color                                    0x20000037   Data           1  statuspac.o(.data)
    .data                                    0x20000038   Section       23  sendbytesstatus.o(.data)
    isStatus                                 0x20000038   Data           1  sendbytesstatus.o(.data)
    isPseudo                                 0x20000039   Data           1  sendbytesstatus.o(.data)
    CurrentState                             0x2000003a   Data           1  sendbytesstatus.o(.data)
    getStatus                                0x2000003b   Data           5  sendbytesstatus.o(.data)
    getRequest                               0x20000040   Data           5  sendbytesstatus.o(.data)
    getQuery                                 0x20000045   Data           5  sendbytesstatus.o(.data)
    readdata                                 0x2000004a   Data           5  sendbytesstatus.o(.data)
    .data                                    0x20000050   Section       60  init_all.o(.data)
    startedShoot                             0x20000050   Data           1  init_all.o(.data)
    ATriggeredFirst                          0x20000051   Data           1  init_all.o(.data)
    BTriggeredFirst                          0x20000052   Data           1  init_all.o(.data)
    seattleDetected                          0x20000053   Data           1  init_all.o(.data)
    miamiDetected                            0x20000054   Data           1  init_all.o(.data)
    concordDetected                          0x20000055   Data           1  init_all.o(.data)
    sacramentoDetected                       0x20000056   Data           1  init_all.o(.data)
    avgCountA                                0x20000057   Data           1  init_all.o(.data)
    avgCountB                                0x20000058   Data           1  init_all.o(.data)
    CurrentDirection                         0x20000059   Data           1  init_all.o(.data)
    MiamiBeaconCounter                       0x2000005c   Data           4  init_all.o(.data)
    SeattleBeaconCounter                     0x20000060   Data           4  init_all.o(.data)
    pulsePeriodA                             0x20000064   Data           4  init_all.o(.data)
    counterA                                 0x20000068   Data           4  init_all.o(.data)
    newEdgeTimeA                             0x2000006c   Data           4  init_all.o(.data)
    oldEdgeTimeA                             0x20000070   Data           4  init_all.o(.data)
    pulsePeriodB                             0x20000074   Data           4  init_all.o(.data)
    counterB                                 0x20000078   Data           4  init_all.o(.data)
    newEdgeTimeB                             0x2000007c   Data           4  init_all.o(.data)
    oldEdgeTimeB                             0x20000080   Data           4  init_all.o(.data)
    LastCapture                              0x20000084   Data           4  init_all.o(.data)
    Period                                   0x20000088   Data           4  init_all.o(.data)
    .data                                    0x2000008c   Section        1  capturestation.o(.data)
    CurrentState                             0x2000008c   Data           1  capturestation.o(.data)
    .data                                    0x2000008d   Section        2  campaigning.o(.data)
    CurrentState                             0x2000008d   Data           1  campaigning.o(.data)
    MyPriority                               0x2000008e   Data           1  campaigning.o(.data)
    .data                                    0x2000008f   Section        1  admulti.o(.data)
    NumChannelsConverting                    0x2000008f   Data           1  admulti.o(.data)
    .data                                    0x20000090   Section        2  pwm10tiva.o(.data)
    MaxConfiguredChannel                     0x20000090   Data           1  pwm10tiva.o(.data)
    i                                        0x20000091   Data           1  pwm10tiva.o(.data)
    .data                                    0x20000092   Section        8  activateshooter.o(.data)
    CurrentState                             0x20000092   Data           1  activateshooter.o(.data)
    startRotationTime                        0x20000094   Data           2  activateshooter.o(.data)
    endRotationTime                          0x20000096   Data           2  activateshooter.o(.data)
    totalRotationTime                        0x20000098   Data           2  activateshooter.o(.data)
    .data                                    0x2000009a   Section        4  cannon.o(.data)
    MyPriority                               0x2000009a   Data           1  cannon.o(.data)
    CurrentState                             0x2000009b   Data           1  cannon.o(.data)
    totalRotationTime                        0x2000009c   Data           2  cannon.o(.data)
    .data                                    0x200000a0   Section       24  camera.o(.data)
    BufferInd                                0x200000a0   Data           1  camera.o(.data)
    CLKState                                 0x200000a1   Data           1  camera.o(.data)
    CompletedRead                            0x200000a2   Data           1  camera.o(.data)
    ForwardDrive                             0x200000a3   Data           1  camera.o(.data)
    LineFound                                0x200000a4   Data           1  camera.o(.data)
    CurrentState                             0x200000a5   Data           1  camera.o(.data)
    MyPriority                               0x200000a6   Data           1  camera.o(.data)
    SI_Counter                               0x200000a8   Data           2  camera.o(.data)
    Direction                                0x200000ac   Data           4  camera.o(.data)
    LastLineCenter                           0x200000b0   Data           4  camera.o(.data)
    AnalogReading                            0x200000b4   Data           4  camera.o(.data)
    .data                                    0x200000b8   Section       68  followline.o(.data)
    LineLostRecovery                         0x200000b8   Data           1  followline.o(.data)
    InPWMDeadband                            0x200000b9   Data           1  followline.o(.data)
    CurrentState                             0x200000ba   Data           1  followline.o(.data)
    Error                                    0x200000bc   Data           4  followline.o(.data)
    AccumulatedError                         0x200000c0   Data           4  followline.o(.data)
    AppendError                              0x200000c4   Data           4  followline.o(.data)
    Direction                                0x200000c8   Data           4  followline.o(.data)
    PreviousError                            0x200000cc   Data           4  followline.o(.data)
    SpeedReduction                           0x200000d0   Data           4  followline.o(.data)
    LineLostCounter                          0x200000d4   Data           4  followline.o(.data)
    AverageProximity                         0x200000d8   Data           4  followline.o(.data)
    distance                                 0x200000dc   Data           4  followline.o(.data)
    Command                                  0x200000e0   Data           4  followline.o(.data)
    RightInput                               0x200000e4   Data           4  followline.o(.data)
    LeftInput                                0x200000e8   Data           4  followline.o(.data)
    PastLineAverage                          0x200000ec   Data           4  followline.o(.data)
    Derivative                               0x200000f0   Data           4  followline.o(.data)
    PastLine                                 0x200000f4   Data           8  followline.o(.data)
    .data                                    0x200000fc   Section       20  ultrasonic.o(.data)
    CurrentState                             0x200000fc   Data           1  ultrasonic.o(.data)
    MyPriority                               0x200000fd   Data           1  ultrasonic.o(.data)
    Period                                   0x20000100   Data           4  ultrasonic.o(.data)
    distance                                 0x20000104   Data           4  ultrasonic.o(.data)
    risetime                                 0x20000108   Data           4  ultrasonic.o(.data)
    falltime                                 0x2000010c   Data           4  ultrasonic.o(.data)
    .data                                    0x20000110   Section        2  es_framework.o(.data)
    .data                                    0x20000112   Section        4  es_port.o(.data)
    TickCount                                0x20000112   Data           1  es_port.o(.data)
    SysTickCounter                           0x20000114   Data           2  es_port.o(.data)
    .data                                    0x20000118   Section        4  es_queue.o(.data)
    .data                                    0x2000011c   Section        6  es_timers.o(.data)
    NextTimer2Process                        0x2000011c   Data           1  es_timers.o(.data)
    NeedsProcessing                          0x2000011e   Data           2  es_timers.o(.data)
    TMR_ActiveFlags                          0x20000120   Data           2  es_timers.o(.data)
    .data                                    0x20000124   Section        4  retarget.o(.data)
    .data                                    0x20000128   Section        4  retarget.o(.data)
    .data                                    0x2000012c   Section        8  uartstdio.o(.data)
    bLastWasCR                               0x2000012c   Data           1  uartstdio.o(.data)
    g_ui32Base                               0x20000130   Data           4  uartstdio.o(.data)
    .bss                                     0x20000134   Section       40  testharnessservice0.o(.bss)
    DeferralQueue                            0x20000134   Data          40  testharnessservice0.o(.bss)
    .bss                                     0x2000015c   Section       64  init_all.o(.bss)
    MovingAverageA                           0x2000015c   Data          32  init_all.o(.bss)
    MovingAverageB                           0x2000017c   Data          32  init_all.o(.bss)
    .bss                                     0x2000019c   Section       32  pwm10tiva.o(.bss)
    LocalDuty                                0x2000019c   Data          10  pwm10tiva.o(.bss)
    ulPeriod                                 0x200001a8   Data          20  pwm10tiva.o(.bss)
    .bss                                     0x200001bc   Section      384  camera.o(.bss)
    Buffer                                   0x200001bc   Data         256  camera.o(.bss)
    thresholded                              0x200002bc   Data         128  camera.o(.bss)
    .bss                                     0x2000033c   Section       40  followline.o(.bss)
    PastProximity                            0x2000033c   Data          40  followline.o(.bss)
    .bss                                     0x20000364   Section       10  es_framework.o(.bss)
    ThisEvent                                0x20000364   Data          10  es_framework.o(.bss)
    .bss                                     0x2000036e   Section       60  es_framework.o(.bss)
    Queue0                                   0x2000036e   Data          60  es_framework.o(.bss)
    .bss                                     0x200003aa   Section       40  es_framework.o(.bss)
    Queue1                                   0x200003aa   Data          40  es_framework.o(.bss)
    .bss                                     0x200003d2   Section       40  es_framework.o(.bss)
    Queue2                                   0x200003d2   Data          40  es_framework.o(.bss)
    .bss                                     0x200003fa   Section       40  es_framework.o(.bss)
    Queue3                                   0x200003fa   Data          40  es_framework.o(.bss)
    .bss                                     0x20000422   Section       40  es_framework.o(.bss)
    Queue4                                   0x20000422   Data          40  es_framework.o(.bss)
    .bss                                     0x2000044a   Section       40  es_framework.o(.bss)
    Queue5                                   0x2000044a   Data          40  es_framework.o(.bss)
    .bss                                     0x20000472   Section       40  es_framework.o(.bss)
    Queue6                                   0x20000472   Data          40  es_framework.o(.bss)
    .bss                                     0x2000049a   Section       42  es_timers.o(.bss)
    TMR_TimerArray                           0x2000049a   Data          32  es_timers.o(.bss)
    NewEvent                                 0x200004ba   Data          10  es_timers.o(.bss)
    .bss                                     0x200004c4   Section       96  libspace.o(.bss)
    HEAP                                     0x20000528   Section        0  startup_rvmdk.o(HEAP)
    STACK                                    0x20000528   Section     2048  startup_rvmdk.o(STACK)
    HeapMem                                  0x20000528   Data           0  startup_rvmdk.o(HEAP)
    StackMem                                 0x20000528   Data           0  startup_rvmdk.o(STACK)

    Global Symbols

    Symbol Name                              Value     Ov Type        Size  Object(Section)

    BuildAttributes$$THM_ISAv4$E$P$D$K$B$S$7EM$VFPi3$EXTD16$VFPS$VFMA$PE$A:L22UL41UL21$X:L11$S22US41US21$IEEE1$IW$USESV6$~STKCKD$USESV7$~SHL$OTIME$ROPI$IEEEJ$EBA8$UX$STANDARDLIB$REQ8$PRES8$EABIv2 0x00000000   Number         0  anon$$obj.o ABSOLUTE
    __ARM_use_no_argv                        0x00000000   Number         0  main.o ABSOLUTE
    __Vectors                                0x00000000   Data           0  startup_rvmdk.o(RESET)
    _printf_flags                            0x00000000   Number         0  printf_stubs.o ABSOLUTE
    _printf_return_value                     0x00000000   Number         0  printf_stubs.o ABSOLUTE
    _printf_sizespec                         0x00000000   Number         0  printf_stubs.o ABSOLUTE
    _printf_widthprec                        0x00000000   Number         0  printf_stubs.o ABSOLUTE
    __ARM_exceptions_init                     - Undefined Weak Reference
    __alloca_initialize                       - Undefined Weak Reference
    __arm_preinit_                            - Undefined Weak Reference
    __cpp_initialize__aeabi_                  - Undefined Weak Reference
    __cxa_finalize                            - Undefined Weak Reference
    __sigvec_lookup                           - Undefined Weak Reference
    _atexit_init                              - Undefined Weak Reference
    _call_atexit_fns                          - Undefined Weak Reference
    _clock_init                               - Undefined Weak Reference
    _fp_trap_init                             - Undefined Weak Reference
    _fp_trap_shutdown                         - Undefined Weak Reference
    _get_lc_collate                           - Undefined Weak Reference
    _get_lc_ctype                             - Undefined Weak Reference
    _get_lc_monetary                          - Undefined Weak Reference
    _get_lc_time                              - Undefined Weak Reference
    _getenv_init                              - Undefined Weak Reference
    _handle_redirection                       - Undefined Weak Reference
    _init_alloc                               - Undefined Weak Reference
    _init_user_alloc                          - Undefined Weak Reference
    _initio                                   - Undefined Weak Reference
    _printf_mbtowc                            - Undefined Weak Reference
    _printf_post_padding                      - Undefined Weak Reference
    _printf_pre_padding                       - Undefined Weak Reference
    _printf_truncate_signed                   - Undefined Weak Reference
    _printf_truncate_unsigned                 - Undefined Weak Reference
    _rand_init                                - Undefined Weak Reference
    _signal_finish                            - Undefined Weak Reference
    _signal_init                              - Undefined Weak Reference
    _terminate_alloc                          - Undefined Weak Reference
    _terminate_user_alloc                     - Undefined Weak Reference
    _terminateio                              - Undefined Weak Reference
    Reset_Handler                            0x0000026d   Thumb Code     0  startup_rvmdk.o(RESET)
    __main                                   0x00000289   Thumb Code     8  __main.o(!!!main)
    __scatterload                            0x00000291   Thumb Code     0  __scatter.o(!!!scatter)
    __scatterload_rt2                        0x00000291   Thumb Code    44  __scatter.o(!!!scatter)
    __scatterload_rt2_thumb_only             0x00000291   Thumb Code     0  __scatter.o(!!!scatter)
    __scatterload_null                       0x0000029f   Thumb Code     0  __scatter.o(!!!scatter)
    __decompress                             0x000002c5   Thumb Code    58  __dczerorl.o(!!dczerorl)
    __decompress0                            0x000002c5   Thumb Code     0  __dczerorl.o(!!dczerorl)
    __scatterload_zeroinit                   0x00000301   Thumb Code    28  __scatter_zi.o(!!handler_zi)
    _printf_f                                0x0000031d   Thumb Code     0  _printf_f.o(.ARM.Collect$$_printf_percent$$00000003)
    _printf_percent                          0x0000031d   Thumb Code     0  _printf_percent.o(.ARM.Collect$$_printf_percent$$00000000)
    _printf_d                                0x00000323   Thumb Code     0  _printf_d.o(.ARM.Collect$$_printf_percent$$00000009)
    _printf_c                                0x00000329   Thumb Code     0  _printf_c.o(.ARM.Collect$$_printf_percent$$00000013)
    _printf_s                                0x0000032f   Thumb Code     0  _printf_s.o(.ARM.Collect$$_printf_percent$$00000014)
    _printf_percent_end                      0x00000335   Thumb Code     0  _printf_percent_end.o(.ARM.Collect$$_printf_percent$$00000017)
    __rt_lib_init                            0x00000339   Thumb Code     0  libinit.o(.ARM.Collect$$libinit$$00000000)
    __rt_lib_init_fp_1                       0x0000033b   Thumb Code     0  libinit2.o(.ARM.Collect$$libinit$$00000001)
    __rt_lib_init_heap_1                     0x0000033f   Thumb Code     0  libinit2.o(.ARM.Collect$$libinit$$0000000A)
    __rt_lib_init_lc_common                  0x0000033f   Thumb Code     0  libinit2.o(.ARM.Collect$$libinit$$0000000F)
    __rt_lib_init_preinit_1                  0x0000033f   Thumb Code     0  libinit2.o(.ARM.Collect$$libinit$$00000004)
    __rt_lib_init_rand_1                     0x0000033f   Thumb Code     0  libinit2.o(.ARM.Collect$$libinit$$0000000E)
    __rt_lib_init_user_alloc_1               0x0000033f   Thumb Code     0  libinit2.o(.ARM.Collect$$libinit$$0000000C)
    __rt_lib_init_lc_collate_1               0x00000345   Thumb Code     0  libinit2.o(.ARM.Collect$$libinit$$00000011)
    __rt_lib_init_lc_ctype_1                 0x00000345   Thumb Code     0  libinit2.o(.ARM.Collect$$libinit$$00000013)
    __rt_lib_init_lc_monetary_1              0x00000345   Thumb Code     0  libinit2.o(.ARM.Collect$$libinit$$00000015)
    __rt_lib_init_lc_numeric_2               0x00000345   Thumb Code     0  libinit2.o(.ARM.Collect$$libinit$$00000016)
    __rt_lib_init_alloca_1                   0x0000034f   Thumb Code     0  libinit2.o(.ARM.Collect$$libinit$$0000002E)
    __rt_lib_init_argv_1                     0x0000034f   Thumb Code     0  libinit2.o(.ARM.Collect$$libinit$$0000002C)
    __rt_lib_init_atexit_1                   0x0000034f   Thumb Code     0  libinit2.o(.ARM.Collect$$libinit$$0000001B)
    __rt_lib_init_clock_1                    0x0000034f   Thumb Code     0  libinit2.o(.ARM.Collect$$libinit$$00000021)
    __rt_lib_init_cpp_1                      0x0000034f   Thumb Code     0  libinit2.o(.ARM.Collect$$libinit$$00000032)
    __rt_lib_init_exceptions_1               0x0000034f   Thumb Code     0  libinit2.o(.ARM.Collect$$libinit$$00000030)
    __rt_lib_init_fp_trap_1                  0x0000034f   Thumb Code     0  libinit2.o(.ARM.Collect$$libinit$$0000001F)
    __rt_lib_init_getenv_1                   0x0000034f   Thumb Code     0  libinit2.o(.ARM.Collect$$libinit$$00000023)
    __rt_lib_init_lc_numeric_1               0x0000034f   Thumb Code     0  libinit2.o(.ARM.Collect$$libinit$$00000017)
    __rt_lib_init_lc_time_1                  0x0000034f   Thumb Code     0  libinit2.o(.ARM.Collect$$libinit$$00000019)
    __rt_lib_init_return                     0x0000034f   Thumb Code     0  libinit2.o(.ARM.Collect$$libinit$$00000033)
    __rt_lib_init_signal_1                   0x0000034f   Thumb Code     0  libinit2.o(.ARM.Collect$$libinit$$0000001D)
    __rt_lib_init_stdio_1                    0x0000034f   Thumb Code     0  libinit2.o(.ARM.Collect$$libinit$$00000025)
    __rt_lib_shutdown                        0x00000351   Thumb Code     0  libshutdown.o(.ARM.Collect$$libshutdown$$00000000)
    __rt_lib_shutdown_cpp_1                  0x00000353   Thumb Code     0  libshutdown2.o(.ARM.Collect$$libshutdown$$00000002)
    __rt_lib_shutdown_fp_trap_1              0x00000353   Thumb Code     0  libshutdown2.o(.ARM.Collect$$libshutdown$$00000007)
    __rt_lib_shutdown_heap_1                 0x00000353   Thumb Code     0  libshutdown2.o(.ARM.Collect$$libshutdown$$0000000F)
    __rt_lib_shutdown_return                 0x00000353   Thumb Code     0  libshutdown2.o(.ARM.Collect$$libshutdown$$00000010)
    __rt_lib_shutdown_signal_1               0x00000353   Thumb Code     0  libshutdown2.o(.ARM.Collect$$libshutdown$$0000000A)
    __rt_lib_shutdown_stdio_1                0x00000353   Thumb Code     0  libshutdown2.o(.ARM.Collect$$libshutdown$$00000004)
    __rt_lib_shutdown_user_alloc_1           0x00000353   Thumb Code     0  libshutdown2.o(.ARM.Collect$$libshutdown$$0000000C)
    __rt_entry                               0x00000355   Thumb Code     0  __rtentry.o(.ARM.Collect$$rtentry$$00000000)
    __rt_entry_presh_1                       0x00000355   Thumb Code     0  __rtentry2.o(.ARM.Collect$$rtentry$$00000002)
    __rt_entry_sh                            0x00000355   Thumb Code     0  __rtentry4.o(.ARM.Collect$$rtentry$$00000004)
    __rt_entry_li                            0x0000035b   Thumb Code     0  __rtentry2.o(.ARM.Collect$$rtentry$$0000000A)
    __rt_entry_postsh_1                      0x0000035b   Thumb Code     0  __rtentry2.o(.ARM.Collect$$rtentry$$00000009)
    __rt_entry_main                          0x0000035f   Thumb Code     0  __rtentry2.o(.ARM.Collect$$rtentry$$0000000D)
    __rt_entry_postli_1                      0x0000035f   Thumb Code     0  __rtentry2.o(.ARM.Collect$$rtentry$$0000000C)
    __rt_exit                                0x00000367   Thumb Code     0  rtexit.o(.ARM.Collect$$rtexit$$00000000)
    __rt_exit_ls                             0x00000369   Thumb Code     0  rtexit2.o(.ARM.Collect$$rtexit$$00000003)
    __rt_exit_prels_1                        0x00000369   Thumb Code     0  rtexit2.o(.ARM.Collect$$rtexit$$00000002)
    __rt_exit_exit                           0x0000036d   Thumb Code     0  rtexit2.o(.ARM.Collect$$rtexit$$00000004)
    SysCtlDelay                              0x00000375   Thumb Code     6  sysctl.o(.emb_text)
    CPUcpsid                                 0x0000037d   Thumb Code     8  cpu.o(.emb_text)
    CPUprimask                               0x00000385   Thumb Code     6  cpu.o(.emb_text)
    CPUcpsie                                 0x0000038b   Thumb Code     8  cpu.o(.emb_text)
    CPUwfi                                   0x00000393   Thumb Code     4  cpu.o(.emb_text)
    CPUbasepriSet                            0x00000397   Thumb Code     6  cpu.o(.emb_text)
    CPUbasepriGet                            0x0000039d   Thumb Code     6  cpu.o(.emb_text)
    __user_initial_stackheap                 0x000003a5   Thumb Code     0  startup_rvmdk.o(.text)
    __I$use$semihosting                      0x000003bd   Thumb Code     0  use_no_semi.o(.text)
    __use_no_semihosting_swi                 0x000003bd   Thumb Code     2  use_no_semi.o(.text)
    __2printf                                0x000003c1   Thumb Code    20  noretval__2printf.o(.text)
    _printf_str                              0x000003d9   Thumb Code    82  _printf_str.o(.text)
    _printf_int_dec                          0x0000042d   Thumb Code   104  _printf_dec.o(.text)
    __printf                                 0x000004a5   Thumb Code   308  __printf_flags_wp.o(.text)
    getc                                     0x000005dd   Thumb Code     4  getc.o(.text)
    puts                                     0x000005e1   Thumb Code    40  puts.o(.text)
    __use_two_region_memory                  0x0000060d   Thumb Code     2  heapauxi.o(.text)
    __rt_heap_escrow$2region                 0x0000060f   Thumb Code     2  heapauxi.o(.text)
    __rt_heap_expand$2region                 0x00000611   Thumb Code     2  heapauxi.o(.text)
    _printf_int_common                       0x00000613   Thumb Code   178  _printf_intcommon.o(.text)
    __lib_sel_fp_printf                      0x000006c5   Thumb Code     2  _printf_fp_dec.o(.text)
    _printf_fp_dec_real                      0x00000873   Thumb Code   620  _printf_fp_dec.o(.text)
    _printf_cs_common                        0x00000adf   Thumb Code    20  _printf_char.o(.text)
    _printf_char                             0x00000af3   Thumb Code    16  _printf_char.o(.text)
    _printf_string                           0x00000b03   Thumb Code     8  _printf_char.o(.text)
    _printf_char_file                        0x00000b0d   Thumb Code    32  _printf_char_file.o(.text)
    __rt_locale                              0x00000b31   Thumb Code     8  rt_locale_intlibspace.o(.text)
    _ll_udiv10                               0x00000b39   Thumb Code   138  lludiv10.o(.text)
    _printf_char_common                      0x00000bcf   Thumb Code    32  _printf_char_common.o(.text)
    _printf_fp_infnan                        0x00000bf5   Thumb Code   112  _printf_fp_infnan.o(.text)
    _btod_etento                             0x00000c75   Thumb Code   216  bigflt0.o(.text)
    __user_libspace                          0x00000d51   Thumb Code     8  libspace.o(.text)
    __user_perproc_libspace                  0x00000d51   Thumb Code     0  libspace.o(.text)
    __user_perthread_libspace                0x00000d51   Thumb Code     0  libspace.o(.text)
    __user_setup_stackheap                   0x00000d59   Thumb Code    74  sys_stackheap_outer.o(.text)
    exit                                     0x00000da3   Thumb Code    18  exit.o(.text)
    strcmp                                   0x00000db5   Thumb Code   128  strcmpv7m.o(.text)
    _btod_d2e                                0x00000e35   Thumb Code    62  btod.o(CL$$btod_d2e)
    _d2e_denorm_low                          0x00000e73   Thumb Code    70  btod.o(CL$$btod_d2e_denorm_low)
    _d2e_norm_op1                            0x00000eb9   Thumb Code    96  btod.o(CL$$btod_d2e_norm_op1)
    __btod_div_common                        0x00000f19   Thumb Code   696  btod.o(CL$$btod_div_common)
    _e2e                                     0x00001251   Thumb Code   198  btod.o(CL$$btod_e2e)
    _btod_ediv                               0x00001317   Thumb Code    40  btod.o(CL$$btod_ediv)
    _btod_emul                               0x0000133f   Thumb Code    40  btod.o(CL$$btod_emul)
    __btod_mult_common                       0x00001367   Thumb Code   580  btod.o(CL$$btod_mult_common)
    ADC_MultiInit                            0x000015ad   Thumb Code   170  admulti.o(i.ADC_MultiInit)
    ADC_MultiRead                            0x00001675   Thumb Code    46  admulti.o(i.ADC_MultiRead)
    CPUgetPRIMASK_cpsid                      0x000016ad   Thumb Code     8  es_port.o(i.CPUgetPRIMASK_cpsid)
    CPUsetPRIMASK                            0x000016b5   Thumb Code     6  es_port.o(i.CPUsetPRIMASK)
    Check4Keystroke                          0x000016bd   Thumb Code    76  eventcheckers.o(i.Check4Keystroke)
    ES_CheckUserEvents                       0x00001bf5   Thumb Code    34  es_checkevents.o(i.ES_CheckUserEvents)
    ES_DeQueue                               0x00001c1d   Thumb Code    94  es_queue.o(i.ES_DeQueue)
    ES_EnQueueFIFO                           0x00001c81   Thumb Code    82  es_queue.o(i.ES_EnQueueFIFO)
    ES_EnQueueLIFO                           0x00001cd9   Thumb Code    84  es_queue.o(i.ES_EnQueueLIFO)
    ES_GetMSBitSet                           0x00001d31   Thumb Code    48  es_lookuptables.o(i.ES_GetMSBitSet)
    ES_InitQueue                             0x00001d65   Thumb Code    16  es_queue.o(i.ES_InitQueue)
    ES_Initialize                            0x00001d75   Thumb Code    72  es_framework.o(i.ES_Initialize)
    ES_PostToService                         0x00001dc1   Thumb Code    42  es_framework.o(i.ES_PostToService)
    ES_PostToServiceLIFO                     0x00001df9   Thumb Code    42  es_framework.o(i.ES_PostToServiceLIFO)
    ES_RecallEvents                          0x00001e31   Thumb Code    46  es_deferrecall.o(i.ES_RecallEvents)
    ES_Run                                   0x00001e61   Thumb Code   104  es_framework.o(i.ES_Run)
    ES_ShortTimerInit                        0x00001ed9   Thumb Code    40  es_shorttimer.o(i.ES_ShortTimerInit)
    ES_ShortTimerStart                       0x00001f11   Thumb Code    90  es_shorttimer.o(i.ES_ShortTimerStart)
    ES_Timer_GetTime                         0x00001f71   Thumb Code     4  es_timers.o(i.ES_Timer_GetTime)
    ES_Timer_Init                            0x00001f75   Thumb Code     4  es_timers.o(i.ES_Timer_Init)
    ES_Timer_InitTimer                       0x00001f79   Thumb Code    44  es_timers.o(i.ES_Timer_InitTimer)
    ES_Timer_Tick_Resp                       0x00001fb5   Thumb Code   104  es_timers.o(i.ES_Timer_Tick_Resp)
    GPIODirModeSet                           0x0000202d   Thumb Code    40  gpio.o(i.GPIODirModeSet)
    GPIOPadConfigSet                         0x00002055   Thumb Code   312  gpio.o(i.GPIOPadConfigSet)
    GPIOPinConfigure                         0x0000218d   Thumb Code    60  gpio.o(i.GPIOPinConfigure)
    GPIOPinTypeGPIOOutput                    0x000021d1   Thumb Code    28  gpio.o(i.GPIOPinTypeGPIOOutput)
    GPIOPinTypePWM                           0x000021ed   Thumb Code    28  gpio.o(i.GPIOPinTypePWM)
    GPIOPinTypeUART                          0x00002209   Thumb Code    28  gpio.o(i.GPIOPinTypeUART)
    GPIOPinWrite                             0x00002225   Thumb Code     6  gpio.o(i.GPIOPinWrite)
    GetLineCenter                            0x0000222d   Thumb Code   492  camera.o(i.GetLineCenter)
    IRInputCapture                           0x00002439   Thumb Code   148  init_all.o(i.IRInputCapture)
    ISRHallPC4                               0x000024ed   Thumb Code    90  init_all.o(i.ISRHallPC4)
    ISRHallPC6                               0x00002559   Thumb Code    90  init_all.o(i.ISRHallPC6)
    ISRStatusPAC                             0x000025c5   Thumb Code    30  sendbytesstatus.o(i.ISRStatusPAC)
    ISRUltraResponse                         0x000025e5   Thumb Code    78  ultrasonic.o(i.ISRUltraResponse)
    InitCampaigningSM                        0x00002649   Thumb Code    22  campaigning.o(i.InitCampaigningSM)
    InitCannon                               0x00002665   Thumb Code    12  cannon.o(i.InitCannon)
    InitPWM                                  0x00002711   Thumb Code   138  ultrasonic.o(i.InitPWM)
    InitPins                                 0x000027c9   Thumb Code    40  statuspac.o(i.InitPins)
    InitStatusPAC                            0x00002801   Thumb Code    28  statuspac.o(i.InitStatusPAC)
    InitStrategySM                           0x00002821   Thumb Code    64  strategy.o(i.InitStrategySM)
    InitTestHarnessService0                  0x00002865   Thumb Code   108  testharnessservice0.o(i.InitTestHarnessService0)
    InitUltra                                0x000028ed   Thumb Code    60  ultrasonic.o(i.InitUltra)
    InitializeCamera                         0x000029dd   Thumb Code    74  camera.o(i.InitializeCamera)
    InitializeTimer                          0x00002b1d   Thumb Code   150  camera.o(i.InitializeTimer)
    IntEnable                                0x00002bc5   Thumb Code    92  interrupt.o(i.IntEnable)
    IntMasterEnable                          0x00002c29   Thumb Code    14  interrupt.o(i.IntMasterEnable)
    PWMGenConfigure                          0x00002c37   Thumb Code    38  pwm.o(i.PWMGenConfigure)
    PWMGenEnable                             0x00002c5d   Thumb Code    10  pwm.o(i.PWMGenEnable)
    PWMGenPeriodSet                          0x00002c67   Thumb Code    18  pwm.o(i.PWMGenPeriodSet)
    PWMOutputState                           0x00002c79   Thumb Code    16  pwm.o(i.PWMOutputState)
    PWMPulseWidthSet                         0x00002c89   Thumb Code    32  pwm.o(i.PWMPulseWidthSet)
    PWMSyncUpdate                            0x00002ca9   Thumb Code     4  pwm.o(i.PWMSyncUpdate)
    PWM_TIVA_Init                            0x00002cad   Thumb Code   646  pwm10tiva.o(i.PWM_TIVA_Init)
    PWM_TIVA_SetDuty                         0x00002f89   Thumb Code   112  pwm10tiva.o(i.PWM_TIVA_SetDuty)
    PWM_TIVA_SetFreq                         0x0000300d   Thumb Code    50  pwm10tiva.o(i.PWM_TIVA_SetFreq)
    PWM_TIVA_SetPeriod                       0x00003049   Thumb Code   102  pwm10tiva.o(i.PWM_TIVA_SetPeriod)
    PostCamera                               0x000030bd   Thumb Code    14  camera.o(i.PostCamera)
    PostCampaigningSM                        0x000030d1   Thumb Code    14  campaigning.o(i.PostCampaigningSM)
    PostCannon                               0x000030e5   Thumb Code    14  cannon.o(i.PostCannon)
    PostStatusPAC                            0x000030f9   Thumb Code    14  statuspac.o(i.PostStatusPAC)
    PostStrategySM                           0x0000310d   Thumb Code    14  strategy.o(i.PostStrategySM)
    PostUltra                                0x00003121   Thumb Code    14  ultrasonic.o(i.PostUltra)
    ProcessRequestResponse                   0x00003135   Thumb Code    38  capturestation.o(i.ProcessRequestResponse)
    ReadFIFO                                 0x00003165   Thumb Code     8  sendbytesstatus.o(i.ReadFIFO)
    ReturnLineCenter                         0x00003171   Thumb Code     8  camera.o(i.ReturnLineCenter)
    ReturnLineFound                          0x0000317d   Thumb Code     6  camera.o(i.ReturnLineFound)
    RunCamera                                0x00003189   Thumb Code   278  camera.o(i.RunCamera)
    RunCampaigningSM                         0x000032b5   Thumb Code   650  campaigning.o(i.RunCampaigningSM)
    RunCannon                                0x0000354d   Thumb Code   174  cannon.o(i.RunCannon)
    RunCaptureStation                        0x00003605   Thumb Code   426  capturestation.o(i.RunCaptureStation)
    RunFollowLine                            0x000037b9   Thumb Code   374  followline.o(i.RunFollowLine)
    RunSendBytesStatus                       0x0000396d   Thumb Code   580  sendbytesstatus.o(i.RunSendBytesStatus)
    RunShooter                               0x00003bbd   Thumb Code   478  activateshooter.o(i.RunShooter)
    RunStatusPAC                             0x00003da5   Thumb Code   276  statuspac.o(i.RunStatusPAC)
    RunStrategySM                            0x00003ec1   Thumb Code  1656  strategy.o(i.RunStrategySM)
    RunTestHarnessService0                   0x000045bd   Thumb Code   284  testharnessservice0.o(i.RunTestHarnessService0)
    RunUltra                                 0x000047e9   Thumb Code    24  ultrasonic.o(i.RunUltra)
    SetPWM                                   0x00004801   Thumb Code   128  ultrasonic.o(i.SetPWM)
    ShortTimerAHandler                       0x000048a1   Thumb Code    46  es_shorttimer.o(i.ShortTimerAHandler)
    ShortTimerBHandler                       0x000048d9   Thumb Code    50  es_shorttimer.o(i.ShortTimerBHandler)
    StartCampaigningSM                       0x00004915   Thumb Code    24  campaigning.o(i.StartCampaigningSM)
    StartCaptureStation                      0x00004931   Thumb Code    24  capturestation.o(i.StartCaptureStation)
    StartFollowLine                          0x0000494d   Thumb Code    42  followline.o(i.StartFollowLine)
    StartSendBytesStatus                     0x0000497d   Thumb Code    30  sendbytesstatus.o(i.StartSendBytesStatus)
    StartShooter                             0x000049a1   Thumb Code    30  activateshooter.o(i.StartShooter)
    StartStatusPAC                           0x000049c5   Thumb Code    24  statuspac.o(i.StartStatusPAC)
    StopMotors                               0x000049e1   Thumb Code    12  motordrive.o(i.StopMotors)
    SysCtlClockGet                           0x000049f1   Thumb Code   304  sysctl.o(i.SysCtlClockGet)
    SysCtlClockSet                           0x00004b45   Thumb Code   270  sysctl.o(i.SysCtlClockSet)
    SysCtlPWMClockSet                        0x00004c65   Thumb Code    14  sysctl.o(i.SysCtlPWMClockSet)
    SysCtlPeripheralEnable                   0x00004c79   Thumb Code    36  sysctl.o(i.SysCtlPeripheralEnable)
    SysCtlPeripheralReady                    0x00004ca1   Thumb Code    40  sysctl.o(i.SysCtlPeripheralReady)
    SysTickEnable                            0x00004ccd   Thumb Code    14  systick.o(i.SysTickEnable)
    SysTickIntEnable                         0x00004cdb   Thumb Code    14  systick.o(i.SysTickIntEnable)
    SysTickIntHandler                        0x00004ce9   Thumb Code    16  es_port.o(i.SysTickIntHandler)
    SysTickPeriodSet                         0x00004cfd   Thumb Code    10  systick.o(i.SysTickPeriodSet)
    TERMIO_GetChar                           0x00004d07   Thumb Code     4  termio.o(i.TERMIO_GetChar)
    TERMIO_Init                              0x00004d0d   Thumb Code    62  termio.o(i.TERMIO_Init)
    TERMIO_PutChar                           0x00004d5d   Thumb Code     8  termio.o(i.TERMIO_PutChar)
    TimerConfigure                           0x00004d69   Thumb Code    88  timer.o(i.TimerConfigure)
    TimerEnable                              0x00004dc9   Thumb Code    14  timer.o(i.TimerEnable)
    TimerIntClear                            0x00004dd7   Thumb Code     4  timer.o(i.TimerIntClear)
    TimerIntEnable                           0x00004ddb   Thumb Code     8  timer.o(i.TimerIntEnable)
    TimerLoadSet                             0x00004de3   Thumb Code    18  timer.o(i.TimerLoadSet)
    TimerPrescaleSet                         0x00004df5   Thumb Code    18  timer.o(i.TimerPrescaleSet)
    UARTCharPut                              0x00004e07   Thumb Code    12  uart.o(i.UARTCharPut)
    UARTClockSourceSet                       0x00004e13   Thumb Code     6  uart.o(i.UARTClockSourceSet)
    UARTStdioConfig                          0x00004e19   Thumb Code    82  uartstdio.o(i.UARTStdioConfig)
    UARTgetc                                 0x00004e75   Thumb Code    20  uartstdio.o(i.UARTgetc)
    UpdatePWM                                0x00004e8d   Thumb Code    38  motordrive.o(i.UpdatePWM)
    WTimer3AISR                              0x00004eb5   Thumb Code    24  camera.o(i.WTimer3AISR)
    WTimer3BISR                              0x00004ed1   Thumb Code    44  camera.o(i.WTimer3BISR)
    WriteCameraServo                         0x00004f01   Thumb Code    16  servo.o(i.WriteCameraServo)
    _HW_GetTickCount                         0x00004f11   Thumb Code     6  es_port.o(i._HW_GetTickCount)
    _HW_Process_Pending_Ints                 0x00004f1d   Thumb Code    26  es_port.o(i._HW_Process_Pending_Ints)
    _HW_Timer_Init                           0x00004f3d   Thumb Code    22  es_port.o(i._HW_Timer_Init)
    __ARM_fpclassify                         0x00004f53   Thumb Code    48  fpclassify.o(i.__ARM_fpclassify)
    _is_digit                                0x00004f83   Thumb Code    14  __printf_wp.o(i._is_digit)
    _sys_exit                                0x00004f91   Thumb Code     2  retarget.o(i._sys_exit)
    disableHall                              0x00004f95   Thumb Code    32  init_all.o(i.disableHall)
    disableIR                                0x00004fc1   Thumb Code    24  init_all.o(i.disableIR)
    enableHall                               0x00004fe1   Thumb Code    76  init_all.o(i.enableHall)
    enableIR                                 0x0000503d   Thumb Code    18  init_all.o(i.enableIR)
    ferror                                   0x00005059   Thumb Code     6  retarget.o(i.ferror)
    fgetc                                    0x0000505f   Thumb Code     4  retarget.o(i.fgetc)
    fputc                                    0x00005063   Thumb Code    14  retarget.o(i.fputc)
    getMyColor                               0x00005071   Thumb Code     6  strategy.o(i.getMyColor)
    getPartySwitch                           0x0000507d   Thumb Code    12  init_all.o(i.getPartySwitch)
    getPeriodFromHall                        0x0000508d   Thumb Code    62  init_all.o(i.getPeriodFromHall)
    initialize_all                           0x0000557d   Thumb Code   128  init_all.o(i.initialize_all)
    isResponseReady                          0x00005619   Thumb Code    14  capturestation.o(i.isResponseReady)
    kbhit                                    0x00005629   Thumb Code    16  termio.o(i.kbhit)
    main                                     0x0000563d   Thumb Code   108  main.o(i.main)
    querydistance                            0x00005861   Thumb Code     8  ultrasonic.o(i.querydistance)
    rotateClockwise                          0x0000586d   Thumb Code    26  motordrive.o(i.rotateClockwise)
    rotateCounterClockwise                   0x0000588d   Thumb Code    26  motordrive.o(i.rotateCounterClockwise)
    setDisplayLED                            0x000058ad   Thumb Code    60  init_all.o(i.setDisplayLED)
    turnOffLED                               0x000058f1   Thumb Code    28  init_all.o(i.turnOffLED)
    _get_lc_numeric                          0x00005911   Thumb Code    44  lc_numeric_c.o(locale$$code)
    __aeabi_d2f                              0x0000593d   Thumb Code     0  d2f.o(x$fpl$d2f)
    _d2f                                     0x0000593d   Thumb Code    98  d2f.o(x$fpl$d2f)
    __aeabi_dadd                             0x000059a1   Thumb Code     0  daddsub_clz.o(x$fpl$dadd)
    _dadd                                    0x000059a1   Thumb Code   332  daddsub_clz.o(x$fpl$dadd)
    __fpl_dcmp_Inf                           0x00005af1   Thumb Code    24  dcmpi.o(x$fpl$dcmpinf)
    __aeabi_ddiv                             0x00005b09   Thumb Code     0  ddiv.o(x$fpl$ddiv)
    _ddiv                                    0x00005b09   Thumb Code   552  ddiv.o(x$fpl$ddiv)
    __aeabi_i2d                              0x00005db9   Thumb Code     0  dflt_clz.o(x$fpl$dflt)
    _dflt                                    0x00005db9   Thumb Code    46  dflt_clz.o(x$fpl$dflt)
    __aeabi_ui2d                             0x00005de7   Thumb Code     0  dflt_clz.o(x$fpl$dfltu)
    _dfltu                                   0x00005de7   Thumb Code    38  dflt_clz.o(x$fpl$dfltu)
    __aeabi_cdcmple                          0x00005e0d   Thumb Code     0  dleqf.o(x$fpl$dleqf)
    _dcmple                                  0x00005e0d   Thumb Code   120  dleqf.o(x$fpl$dleqf)
    __fpl_dcmple_InfNaN                      0x00005e6f   Thumb Code     0  dleqf.o(x$fpl$dleqf)
    __aeabi_dmul                             0x00005e85   Thumb Code     0  dmul.o(x$fpl$dmul)
    _dmul                                    0x00005e85   Thumb Code   332  dmul.o(x$fpl$dmul)
    __fpl_dnaninf                            0x00005fd9   Thumb Code   156  dnaninf.o(x$fpl$dnaninf)
    __fpl_dretinf                            0x00006075   Thumb Code    12  dretinf.o(x$fpl$dretinf)
    __aeabi_drsub                            0x00006081   Thumb Code     0  daddsub_clz.o(x$fpl$drsb)
    _drsb                                    0x00006081   Thumb Code    22  daddsub_clz.o(x$fpl$drsb)
    __aeabi_dsub                             0x00006099   Thumb Code     0  daddsub_clz.o(x$fpl$dsub)
    _dsub                                    0x00006099   Thumb Code   464  daddsub_clz.o(x$fpl$dsub)
    __aeabi_f2d                              0x0000626d   Thumb Code     0  f2d.o(x$fpl$f2d)
    _f2d                                     0x0000626d   Thumb Code    86  f2d.o(x$fpl$f2d)
    __fpl_fnaninf                            0x000062c3   Thumb Code   140  fnaninf.o(x$fpl$fnaninf)
    _fp_init                                 0x0000634f   Thumb Code    10  fpinit.o(x$fpl$fpinit)
    __fplib_config_fpu_vfp                   0x00006357   Thumb Code     0  fpinit.o(x$fpl$fpinit)
    __fplib_config_pureend_doubles           0x00006357   Thumb Code     0  fpinit.o(x$fpl$fpinit)
    __fpl_fretinf                            0x00006359   Thumb Code    10  fretinf.o(x$fpl$fretinf)
    _printf_fp_dec                           0x00006363   Thumb Code     4  printf1.o(x$fpl$printf1)
    __I$use$fp                               0x00006366   Number         0  usenofp.o(x$fpl$usenofp)
    BitNum2SetMask                           0x000064b8   Data          32  es_lookuptables.o(.constdata)
    Nybble2MSBitNum                          0x000064d8   Data          15  es_lookuptables.o(.constdata)
    Region$$Table$$Base                      0x00006ae0   Number         0  anon$$obj.o(Region$$Table)
    Region$$Table$$Limit                     0x00006b00   Number         0  anon$$obj.o(Region$$Table)
    Ready                                    0x20000110   Data           2  es_framework.o(.data)
    _PRIMASK_temp                            0x20000118   Data           4  es_queue.o(.data)
    __stdout                                 0x20000124   Data           4  retarget.o(.data)
    __stdin                                  0x20000128   Data           4  retarget.o(.data)
    __libspace_start                         0x200004c4   Data          96  libspace.o(.bss)
    __temporary_stack_top$libspace           0x20000524   Data           0  libspace.o(.bss)



==============================================================================

Memory Map of the image

  Image Entry point : 0x0000026d

  Load Region LR_IROM1 (Base: 0x00000000, Size: 0x00006c50, Max: 0x00040000, ABSOLUTE, COMPRESSED[0x00006b54])

    Execution Region ER_IROM1 (Base: 0x00000000, Size: 0x00006b1c, Max: 0x00040000, ABSOLUTE)

    Base Addr    Size         Type   Attr      Idx    E Section Name        Object

    0x00000000   0x00000288   Code   RO          951  * RESET               startup_rvmdk.o
    0x00000288   0x00000008   Code   RO         3025  * !!!main             c_w.l(__main.o)
    0x00000290   0x00000034   Code   RO         3271    !!!scatter          c_w.l(__scatter.o)
    0x000002c4   0x0000003a   Code   RO         3269    !!dczerorl          c_w.l(__dczerorl.o)
    0x000002fe   0x00000002   PAD
    0x00000300   0x0000001c   Code   RO         3273    !!handler_zi        c_w.l(__scatter_zi.o)
    0x0000031c   0x00000000   Code   RO         3018    .ARM.Collect$$_printf_percent$$00000000  c_w.l(_printf_percent.o)
    0x0000031c   0x00000006   Code   RO         3017    .ARM.Collect$$_printf_percent$$00000003  c_w.l(_printf_f.o)
    0x00000322   0x00000006   Code   RO         3016    .ARM.Collect$$_printf_percent$$00000009  c_w.l(_printf_d.o)
    0x00000328   0x00000006   Code   RO         3014    .ARM.Collect$$_printf_percent$$00000013  c_w.l(_printf_c.o)
    0x0000032e   0x00000006   Code   RO         3015    .ARM.Collect$$_printf_percent$$00000014  c_w.l(_printf_s.o)
    0x00000334   0x00000004   Code   RO         3062    .ARM.Collect$$_printf_percent$$00000017  c_w.l(_printf_percent_end.o)
    0x00000338   0x00000002   Code   RO         3148    .ARM.Collect$$libinit$$00000000  c_w.l(libinit.o)
    0x0000033a   0x00000004   Code   RO         3149    .ARM.Collect$$libinit$$00000001  c_w.l(libinit2.o)
    0x0000033e   0x00000000   Code   RO         3152    .ARM.Collect$$libinit$$00000004  c_w.l(libinit2.o)
    0x0000033e   0x00000000   Code   RO         3155    .ARM.Collect$$libinit$$0000000A  c_w.l(libinit2.o)
    0x0000033e   0x00000000   Code   RO         3157    .ARM.Collect$$libinit$$0000000C  c_w.l(libinit2.o)
    0x0000033e   0x00000000   Code   RO         3159    .ARM.Collect$$libinit$$0000000E  c_w.l(libinit2.o)
    0x0000033e   0x00000006   Code   RO         3160    .ARM.Collect$$libinit$$0000000F  c_w.l(libinit2.o)
    0x00000344   0x00000000   Code   RO         3162    .ARM.Collect$$libinit$$00000011  c_w.l(libinit2.o)
    0x00000344   0x00000000   Code   RO         3164    .ARM.Collect$$libinit$$00000013  c_w.l(libinit2.o)
    0x00000344   0x00000000   Code   RO         3166    .ARM.Collect$$libinit$$00000015  c_w.l(libinit2.o)
    0x00000344   0x0000000a   Code   RO         3167    .ARM.Collect$$libinit$$00000016  c_w.l(libinit2.o)
    0x0000034e   0x00000000   Code   RO         3168    .ARM.Collect$$libinit$$00000017  c_w.l(libinit2.o)
    0x0000034e   0x00000000   Code   RO         3170    .ARM.Collect$$libinit$$00000019  c_w.l(libinit2.o)
    0x0000034e   0x00000000   Code   RO         3172    .ARM.Collect$$libinit$$0000001B  c_w.l(libinit2.o)
    0x0000034e   0x00000000   Code   RO         3174    .ARM.Collect$$libinit$$0000001D  c_w.l(libinit2.o)
    0x0000034e   0x00000000   Code   RO         3176    .ARM.Collect$$libinit$$0000001F  c_w.l(libinit2.o)
    0x0000034e   0x00000000   Code   RO         3178    .ARM.Collect$$libinit$$00000021  c_w.l(libinit2.o)
    0x0000034e   0x00000000   Code   RO         3180    .ARM.Collect$$libinit$$00000023  c_w.l(libinit2.o)
    0x0000034e   0x00000000   Code   RO         3182    .ARM.Collect$$libinit$$00000025  c_w.l(libinit2.o)
    0x0000034e   0x00000000   Code   RO         3186    .ARM.Collect$$libinit$$0000002C  c_w.l(libinit2.o)
    0x0000034e   0x00000000   Code   RO         3188    .ARM.Collect$$libinit$$0000002E  c_w.l(libinit2.o)
    0x0000034e   0x00000000   Code   RO         3190    .ARM.Collect$$libinit$$00000030  c_w.l(libinit2.o)
    0x0000034e   0x00000000   Code   RO         3192    .ARM.Collect$$libinit$$00000032  c_w.l(libinit2.o)
    0x0000034e   0x00000002   Code   RO         3193    .ARM.Collect$$libinit$$00000033  c_w.l(libinit2.o)
    0x00000350   0x00000002   Code   RO         3221    .ARM.Collect$$libshutdown$$00000000  c_w.l(libshutdown.o)
    0x00000352   0x00000000   Code   RO         3230    .ARM.Collect$$libshutdown$$00000002  c_w.l(libshutdown2.o)
    0x00000352   0x00000000   Code   RO         3232    .ARM.Collect$$libshutdown$$00000004  c_w.l(libshutdown2.o)
    0x00000352   0x00000000   Code   RO         3235    .ARM.Collect$$libshutdown$$00000007  c_w.l(libshutdown2.o)
    0x00000352   0x00000000   Code   RO         3238    .ARM.Collect$$libshutdown$$0000000A  c_w.l(libshutdown2.o)
    0x00000352   0x00000000   Code   RO         3240    .ARM.Collect$$libshutdown$$0000000C  c_w.l(libshutdown2.o)
    0x00000352   0x00000000   Code   RO         3243    .ARM.Collect$$libshutdown$$0000000F  c_w.l(libshutdown2.o)
    0x00000352   0x00000002   Code   RO         3244    .ARM.Collect$$libshutdown$$00000010  c_w.l(libshutdown2.o)
    0x00000354   0x00000000   Code   RO         3053    .ARM.Collect$$rtentry$$00000000  c_w.l(__rtentry.o)
    0x00000354   0x00000000   Code   RO         3075    .ARM.Collect$$rtentry$$00000002  c_w.l(__rtentry2.o)
    0x00000354   0x00000006   Code   RO         3087    .ARM.Collect$$rtentry$$00000004  c_w.l(__rtentry4.o)
    0x0000035a   0x00000000   Code   RO         3077    .ARM.Collect$$rtentry$$00000009  c_w.l(__rtentry2.o)
    0x0000035a   0x00000004   Code   RO         3078    .ARM.Collect$$rtentry$$0000000A  c_w.l(__rtentry2.o)
    0x0000035e   0x00000000   Code   RO         3080    .ARM.Collect$$rtentry$$0000000C  c_w.l(__rtentry2.o)
    0x0000035e   0x00000008   Code   RO         3081    .ARM.Collect$$rtentry$$0000000D  c_w.l(__rtentry2.o)
    0x00000366   0x00000002   Code   RO         3194    .ARM.Collect$$rtexit$$00000000  c_w.l(rtexit.o)
    0x00000368   0x00000000   Code   RO         3201    .ARM.Collect$$rtexit$$00000002  c_w.l(rtexit2.o)
    0x00000368   0x00000004   Code   RO         3202    .ARM.Collect$$rtexit$$00000003  c_w.l(rtexit2.o)
    0x0000036c   0x00000006   Code   RO         3203    .ARM.Collect$$rtexit$$00000004  c_w.l(rtexit2.o)
    0x00000372   0x00000002   PAD
    0x00000374   0x00000006   Code   RO         2028    .emb_text           driverlib.lib(sysctl.o)
    0x0000037a   0x00000002   PAD
    0x0000037c   0x00000026   Code   RO         2970    .emb_text           driverlib.lib(cpu.o)
    0x000003a2   0x00000002   PAD
    0x000003a4   0x00000018   Code   RO          952    .text               startup_rvmdk.o
    0x000003bc   0x00000002   Code   RO         2982    .text               c_w.l(use_no_semi.o)
    0x000003be   0x00000002   PAD
    0x000003c0   0x00000018   Code   RO         2986    .text               c_w.l(noretval__2printf.o)
    0x000003d8   0x00000052   Code   RO         2990    .text               c_w.l(_printf_str.o)
    0x0000042a   0x00000002   PAD
    0x0000042c   0x00000078   Code   RO         2992    .text               c_w.l(_printf_dec.o)
    0x000004a4   0x00000138   Code   RO         3006    .text               c_w.l(__printf_flags_wp.o)
    0x000005dc   0x00000004   Code   RO         3019    .text               c_w.l(getc.o)
    0x000005e0   0x0000002c   Code   RO         3021    .text               c_w.l(puts.o)
    0x0000060c   0x00000006   Code   RO         3023    .text               c_w.l(heapauxi.o)
    0x00000612   0x000000b2   Code   RO         3054    .text               c_w.l(_printf_intcommon.o)
    0x000006c4   0x0000041a   Code   RO         3056    .text               c_w.l(_printf_fp_dec.o)
    0x00000ade   0x0000002c   Code   RO         3058    .text               c_w.l(_printf_char.o)
    0x00000b0a   0x00000002   PAD
    0x00000b0c   0x00000024   Code   RO         3060    .text               c_w.l(_printf_char_file.o)
    0x00000b30   0x00000008   Code   RO         3092    .text               c_w.l(rt_locale_intlibspace.o)
    0x00000b38   0x0000008a   Code   RO         3094    .text               c_w.l(lludiv10.o)
    0x00000bc2   0x00000002   PAD
    0x00000bc4   0x00000030   Code   RO         3096    .text               c_w.l(_printf_char_common.o)
    0x00000bf4   0x00000080   Code   RO         3098    .text               c_w.l(_printf_fp_infnan.o)
    0x00000c74   0x000000dc   Code   RO         3100    .text               c_w.l(bigflt0.o)
    0x00000d50   0x00000008   Code   RO         3132    .text               c_w.l(libspace.o)
    0x00000d58   0x0000004a   Code   RO         3135    .text               c_w.l(sys_stackheap_outer.o)
    0x00000da2   0x00000012   Code   RO         3139    .text               c_w.l(exit.o)
    0x00000db4   0x00000080   Code   RO         3141    .text               c_w.l(strcmpv7m.o)
    0x00000e34   0x0000003e   Code   RO         3103    CL$$btod_d2e        c_w.l(btod.o)
    0x00000e72   0x00000046   Code   RO         3105    CL$$btod_d2e_denorm_low  c_w.l(btod.o)
    0x00000eb8   0x00000060   Code   RO         3104    CL$$btod_d2e_norm_op1  c_w.l(btod.o)
    0x00000f18   0x00000338   Code   RO         3113    CL$$btod_div_common  c_w.l(btod.o)
    0x00001250   0x000000c6   Code   RO         3110    CL$$btod_e2e        c_w.l(btod.o)
    0x00001316   0x00000028   Code   RO         3107    CL$$btod_ediv       c_w.l(btod.o)
    0x0000133e   0x00000028   Code   RO         3106    CL$$btod_emul       c_w.l(btod.o)
    0x00001366   0x00000244   Code   RO         3112    CL$$btod_mult_common  c_w.l(btod.o)
    0x000015aa   0x00000002   PAD
    0x000015ac   0x000000c8   Code   RO          594    i.ADC_MultiInit     admulti.o
    0x00001674   0x00000038   Code   RO          595    i.ADC_MultiRead     admulti.o
    0x000016ac   0x00000008   Code   RO         1087    i.CPUgetPRIMASK_cpsid  es_port.o
    0x000016b4   0x00000006   Code   RO         1093    i.CPUsetPRIMASK     es_port.o
    0x000016ba   0x00000002   PAD
    0x000016bc   0x00000050   Code   RO           86    i.Check4Keystroke   eventcheckers.o
    0x0000170c   0x0000000e   Code   RO          621    i.ConvertAngle      servo.o
    0x0000171a   0x00000002   PAD
    0x0000171c   0x000004d6   Code   RO          842    i.DuringStateFollowing  followline.o
    0x00001bf2   0x00000002   PAD
    0x00001bf4   0x00000028   Code   RO          958    i.ES_CheckUserEvents  es_checkevents.o
    0x00001c1c   0x00000064   Code   RO         1123    i.ES_DeQueue        es_queue.o
    0x00001c80   0x00000058   Code   RO         1124    i.ES_EnQueueFIFO    es_queue.o
    0x00001cd8   0x00000058   Code   RO         1125    i.ES_EnQueueLIFO    es_queue.o
    0x00001d30   0x00000034   Code   RO         1036    i.ES_GetMSBitSet    es_lookuptables.o
    0x00001d64   0x00000010   Code   RO         1126    i.ES_InitQueue      es_queue.o
    0x00001d74   0x0000004c   Code   RO          984    i.ES_Initialize     es_framework.o
    0x00001dc0   0x00000038   Code   RO          986    i.ES_PostToService  es_framework.o
    0x00001df8   0x00000038   Code   RO          987    i.ES_PostToServiceLIFO  es_framework.o
    0x00001e30   0x0000002e   Code   RO          972    i.ES_RecallEvents   es_deferrecall.o
    0x00001e5e   0x00000002   PAD
    0x00001e60   0x00000078   Code   RO          988    i.ES_Run            es_framework.o
    0x00001ed8   0x00000038   Code   RO          173    i.ES_ShortTimerInit  es_shorttimer.o
    0x00001f10   0x00000060   Code   RO          174    i.ES_ShortTimerStart  es_shorttimer.o
    0x00001f70   0x00000004   Code   RO         1165    i.ES_Timer_GetTime  es_timers.o
    0x00001f74   0x00000004   Code   RO         1166    i.ES_Timer_Init     es_timers.o
    0x00001f78   0x0000003c   Code   RO         1167    i.ES_Timer_InitTimer  es_timers.o
    0x00001fb4   0x00000078   Code   RO         1171    i.ES_Timer_Tick_Resp  es_timers.o
    0x0000202c   0x00000028   Code   RO         1370    i.GPIODirModeSet    driverlib.lib(gpio.o)
    0x00002054   0x00000138   Code   RO         1380    i.GPIOPadConfigSet  driverlib.lib(gpio.o)
    0x0000218c   0x00000044   Code   RO         1381    i.GPIOPinConfigure  driverlib.lib(gpio.o)
    0x000021d0   0x0000001c   Code   RO         1392    i.GPIOPinTypeGPIOOutput  driverlib.lib(gpio.o)
    0x000021ec   0x0000001c   Code   RO         1399    i.GPIOPinTypePWM    driverlib.lib(gpio.o)
    0x00002208   0x0000001c   Code   RO         1404    i.GPIOPinTypeUART   driverlib.lib(gpio.o)
    0x00002224   0x00000006   Code   RO         1410    i.GPIOPinWrite      driverlib.lib(gpio.o)
    0x0000222a   0x00000002   PAD
    0x0000222c   0x0000020c   Code   RO          779    i.GetLineCenter     camera.o
    0x00002438   0x000000b4   Code   RO          377    i.IRInputCapture    init_all.o
    0x000024ec   0x0000006c   Code   RO          378    i.ISRHallPC4        init_all.o
    0x00002558   0x0000006c   Code   RO          379    i.ISRHallPC6        init_all.o
    0x000025c4   0x0000001e   Code   RO          333    i.ISRStatusPAC      sendbytesstatus.o
    0x000025e2   0x00000002   PAD
    0x000025e4   0x00000064   Code   RO          875    i.ISRUltraResponse  ultrasonic.o
    0x00002648   0x0000001c   Code   RO          556    i.InitCampaigningSM  campaigning.o
    0x00002664   0x00000010   Code   RO          753    i.InitCannon        cannon.o
    0x00002674   0x0000009c   Code   RO          380    i.InitIRInputCapture  init_all.o
    0x00002710   0x000000b8   Code   RO          876    i.InitPWM           ultrasonic.o
    0x000027c8   0x00000038   Code   RO          286    i.InitPins          statuspac.o
    0x00002800   0x00000020   Code   RO          287    i.InitStatusPAC     statuspac.o
    0x00002820   0x00000044   Code   RO          214    i.InitStrategySM    strategy.o
    0x00002864   0x00000088   Code   RO          125    i.InitTestHarnessService0  testharnessservice0.o
    0x000028ec   0x00000044   Code   RO          877    i.InitUltra         ultrasonic.o
    0x00002930   0x000000ac   Code   RO          381    i.InitUltrasonic    init_all.o
    0x000029dc   0x0000005c   Code   RO          780    i.InitializeCamera  camera.o
    0x00002a38   0x000000e4   Code   RO          382    i.InitializeSPI     init_all.o
    0x00002b1c   0x000000a8   Code   RO          781    i.InitializeTimer   camera.o
    0x00002bc4   0x00000064   Code   RO         1680    i.IntEnable         driverlib.lib(interrupt.o)
    0x00002c28   0x0000000e   Code   RO         1683    i.IntMasterEnable   driverlib.lib(interrupt.o)
    0x00002c36   0x00000026   Code   RO         1803    i.PWMGenConfigure   driverlib.lib(pwm.o)
    0x00002c5c   0x0000000a   Code   RO         1805    i.PWMGenEnable      driverlib.lib(pwm.o)
    0x00002c66   0x00000012   Code   RO         1818    i.PWMGenPeriodSet   driverlib.lib(pwm.o)
    0x00002c78   0x00000010   Code   RO         1825    i.PWMOutputState    driverlib.lib(pwm.o)
    0x00002c88   0x00000020   Code   RO         1828    i.PWMPulseWidthSet  driverlib.lib(pwm.o)
    0x00002ca8   0x00000004   Code   RO         1830    i.PWMSyncUpdate     driverlib.lib(pwm.o)
    0x00002cac   0x000002dc   Code   RO          647    i.PWM_TIVA_Init     pwm10tiva.o
    0x00002f88   0x00000084   Code   RO          648    i.PWM_TIVA_SetDuty  pwm10tiva.o
    0x0000300c   0x0000003c   Code   RO          649    i.PWM_TIVA_SetFreq  pwm10tiva.o
    0x00003048   0x00000074   Code   RO          650    i.PWM_TIVA_SetPeriod  pwm10tiva.o
    0x000030bc   0x00000014   Code   RO          782    i.PostCamera        camera.o
    0x000030d0   0x00000014   Code   RO          557    i.PostCampaigningSM  campaigning.o
    0x000030e4   0x00000014   Code   RO          754    i.PostCannon        cannon.o
    0x000030f8   0x00000014   Code   RO          288    i.PostStatusPAC     statuspac.o
    0x0000310c   0x00000014   Code   RO          215    i.PostStrategySM    strategy.o
    0x00003120   0x00000014   Code   RO          878    i.PostUltra         ultrasonic.o
    0x00003134   0x00000030   Code   RO          518    i.ProcessRequestResponse  capturestation.o
    0x00003164   0x0000000c   Code   RO          335    i.ReadFIFO          sendbytesstatus.o
    0x00003170   0x0000000c   Code   RO          783    i.ReturnLineCenter  camera.o
    0x0000317c   0x0000000c   Code   RO          784    i.ReturnLineFound   camera.o
    0x00003188   0x0000012c   Code   RO          785    i.RunCamera         camera.o
    0x000032b4   0x00000298   Code   RO          558    i.RunCampaigningSM  campaigning.o
    0x0000354c   0x000000b8   Code   RO          755    i.RunCannon         cannon.o
    0x00003604   0x000001b4   Code   RO          520    i.RunCaptureStation  capturestation.o
    0x000037b8   0x000001b4   Code   RO          844    i.RunFollowLine     followline.o
    0x0000396c   0x00000250   Code   RO          336    i.RunSendBytesStatus  sendbytesstatus.o
    0x00003bbc   0x000001e8   Code   RO          727    i.RunShooter        activateshooter.o
    0x00003da4   0x0000011c   Code   RO          289    i.RunStatusPAC      statuspac.o
    0x00003ec0   0x000006fc   Code   RO          217    i.RunStrategySM     strategy.o
    0x000045bc   0x0000022c   Code   RO          127    i.RunTestHarnessService0  testharnessservice0.o
    0x000047e8   0x00000018   Code   RO          879    i.RunUltra          ultrasonic.o
    0x00004800   0x000000a0   Code   RO          880    i.SetPWM            ultrasonic.o
    0x000048a0   0x00000038   Code   RO          175    i.ShortTimerAHandler  es_shorttimer.o
    0x000048d8   0x0000003c   Code   RO          176    i.ShortTimerBHandler  es_shorttimer.o
    0x00004914   0x0000001c   Code   RO          559    i.StartCampaigningSM  campaigning.o
    0x00004930   0x0000001c   Code   RO          521    i.StartCaptureStation  capturestation.o
    0x0000494c   0x00000030   Code   RO          845    i.StartFollowLine   followline.o
    0x0000497c   0x00000024   Code   RO          337    i.StartSendBytesStatus  sendbytesstatus.o
    0x000049a0   0x00000024   Code   RO          728    i.StartShooter      activateshooter.o
    0x000049c4   0x0000001c   Code   RO          290    i.StartStatusPAC    statuspac.o
    0x000049e0   0x00000010   Code   RO          690    i.StopMotors        motordrive.o
    0x000049f0   0x00000154   Code   RO         2031    i.SysCtlClockGet    driverlib.lib(sysctl.o)
    0x00004b44   0x00000120   Code   RO         2033    i.SysCtlClockSet    driverlib.lib(sysctl.o)
    0x00004c64   0x00000014   Code   RO         2057    i.SysCtlPWMClockSet  driverlib.lib(sysctl.o)
    0x00004c78   0x00000028   Code   RO         2062    i.SysCtlPeripheralEnable  driverlib.lib(sysctl.o)
    0x00004ca0   0x0000002c   Code   RO         2066    i.SysCtlPeripheralReady  driverlib.lib(sysctl.o)
    0x00004ccc   0x0000000e   Code   RO         2371    i.SysTickEnable     driverlib.lib(systick.o)
    0x00004cda   0x0000000e   Code   RO         2373    i.SysTickIntEnable  driverlib.lib(systick.o)
    0x00004ce8   0x00000014   Code   RO         1053    i.SysTickIntHandler  es_port.o
    0x00004cfc   0x0000000a   Code   RO         2377    i.SysTickPeriodSet  driverlib.lib(systick.o)
    0x00004d06   0x00000004   Code   RO         1270    i.TERMIO_GetChar    termio.o
    0x00004d0a   0x00000002   PAD
    0x00004d0c   0x00000050   Code   RO         1271    i.TERMIO_Init       termio.o
    0x00004d5c   0x0000000c   Code   RO         1272    i.TERMIO_PutChar    termio.o
    0x00004d68   0x00000060   Code   RO         2437    i.TimerConfigure    driverlib.lib(timer.o)
    0x00004dc8   0x0000000e   Code   RO         2446    i.TimerEnable       driverlib.lib(timer.o)
    0x00004dd6   0x00000004   Code   RO         2447    i.TimerIntClear     driverlib.lib(timer.o)
    0x00004dda   0x00000008   Code   RO         2449    i.TimerIntEnable    driverlib.lib(timer.o)
    0x00004de2   0x00000012   Code   RO         2455    i.TimerLoadSet      driverlib.lib(timer.o)
    0x00004df4   0x00000012   Code   RO         2464    i.TimerPrescaleSet  driverlib.lib(timer.o)
    0x00004e06   0x0000000c   Code   RO         2683    i.UARTCharPut       driverlib.lib(uart.o)
    0x00004e12   0x00000006   Code   RO         2687    i.UARTClockSourceSet  driverlib.lib(uart.o)
    0x00004e18   0x0000005c   Code   RO         1313    i.UARTStdioConfig   uartstdio.o
    0x00004e74   0x00000018   Code   RO         1314    i.UARTgetc          uartstdio.o
    0x00004e8c   0x00000026   Code   RO          691    i.UpdatePWM         motordrive.o
    0x00004eb2   0x00000002   PAD
    0x00004eb4   0x0000001c   Code   RO          786    i.WTimer3AISR       camera.o
    0x00004ed0   0x00000030   Code   RO          787    i.WTimer3BISR       camera.o
    0x00004f00   0x00000010   Code   RO          622    i.WriteCameraServo  servo.o
    0x00004f10   0x0000000c   Code   RO         1054    i._HW_GetTickCount  es_port.o
    0x00004f1c   0x00000020   Code   RO         1055    i._HW_Process_Pending_Ints  es_port.o
    0x00004f3c   0x00000016   Code   RO         1056    i._HW_Timer_Init    es_port.o
    0x00004f52   0x00000030   Code   RO         3130    i.__ARM_fpclassify  m_wm.l(fpclassify.o)
    0x00004f82   0x0000000e   Code   RO         3004    i._is_digit         c_w.l(__printf_wp.o)
    0x00004f90   0x00000002   Code   RO         1217    i._sys_exit         retarget.o
    0x00004f92   0x00000002   PAD
    0x00004f94   0x0000002c   Code   RO          383    i.disableHall       init_all.o
    0x00004fc0   0x00000020   Code   RO          384    i.disableIR         init_all.o
    0x00004fe0   0x0000005c   Code   RO          385    i.enableHall        init_all.o
    0x0000503c   0x0000001c   Code   RO          386    i.enableIR          init_all.o
    0x00005058   0x00000006   Code   RO         1219    i.ferror            retarget.o
    0x0000505e   0x00000004   Code   RO         1220    i.fgetc             retarget.o
    0x00005062   0x0000000e   Code   RO         1221    i.fputc             retarget.o
    0x00005070   0x0000000c   Code   RO          218    i.getMyColor        strategy.o
    0x0000507c   0x00000010   Code   RO          389    i.getPartySwitch    init_all.o
    0x0000508c   0x00000048   Code   RO          390    i.getPeriodFromHall  init_all.o
    0x000050d4   0x00000348   Code   RO          219    i.getPollingStationCode  strategy.o
    0x0000541c   0x0000000c   Code   RO          220    i.getRBN            strategy.o
    0x00005428   0x000000c0   Code   RO          393    i.initHallInputPC4  init_all.o
    0x000054e8   0x00000094   Code   RO          394    i.initHallInputPC6  init_all.o
    0x0000557c   0x0000009c   Code   RO          395    i.initialize_all    init_all.o
    0x00005618   0x0000000e   Code   RO          522    i.isResponseReady   capturestation.o
    0x00005626   0x00000002   PAD
    0x00005628   0x00000014   Code   RO         1273    i.kbhit             termio.o
    0x0000563c   0x000001d0   Code   RO            1    i.main              main.o
    0x0000580c   0x00000054   Code   RO          221    i.processQueryResponse  strategy.o
    0x00005860   0x0000000c   Code   RO          883    i.querydistance     ultrasonic.o
    0x0000586c   0x00000020   Code   RO          693    i.rotateClockwise   motordrive.o
    0x0000588c   0x00000020   Code   RO          694    i.rotateCounterClockwise  motordrive.o
    0x000058ac   0x00000044   Code   RO          396    i.setDisplayLED     init_all.o
    0x000058f0   0x00000020   Code   RO          397    i.turnOffLED        init_all.o
    0x00005910   0x0000002c   Code   RO         3126    locale$$code        c_w.l(lc_numeric_c.o)
    0x0000593c   0x00000062   Code   RO         3027    x$fpl$d2f           fz_wm.l(d2f.o)
    0x0000599e   0x00000002   PAD
    0x000059a0   0x00000150   Code   RO         3029    x$fpl$dadd          fz_wm.l(daddsub_clz.o)
    0x00005af0   0x00000018   Code   RO         3063    x$fpl$dcmpinf       fz_wm.l(dcmpi.o)
    0x00005b08   0x000002b0   Code   RO         3036    x$fpl$ddiv          fz_wm.l(ddiv.o)
    0x00005db8   0x0000002e   Code   RO         3040    x$fpl$dflt          fz_wm.l(dflt_clz.o)
    0x00005de6   0x00000026   Code   RO         3039    x$fpl$dfltu         fz_wm.l(dflt_clz.o)
    0x00005e0c   0x00000078   Code   RO         3045    x$fpl$dleqf         fz_wm.l(dleqf.o)
    0x00005e84   0x00000154   Code   RO         3047    x$fpl$dmul          fz_wm.l(dmul.o)
    0x00005fd8   0x0000009c   Code   RO         3065    x$fpl$dnaninf       fz_wm.l(dnaninf.o)
    0x00006074   0x0000000c   Code   RO         3067    x$fpl$dretinf       fz_wm.l(dretinf.o)
    0x00006080   0x00000016   Code   RO         3030    x$fpl$drsb          fz_wm.l(daddsub_clz.o)
    0x00006096   0x00000002   PAD
    0x00006098   0x000001d4   Code   RO         3031    x$fpl$dsub          fz_wm.l(daddsub_clz.o)
    0x0000626c   0x00000056   Code   RO         3049    x$fpl$f2d           fz_wm.l(f2d.o)
    0x000062c2   0x0000008c   Code   RO         3069    x$fpl$fnaninf       fz_wm.l(fnaninf.o)
    0x0000634e   0x0000000a   Code   RO         3198    x$fpl$fpinit        fz_wm.l(fpinit.o)
    0x00006358   0x0000000a   Code   RO         3071    x$fpl$fretinf       fz_wm.l(fretinf.o)
    0x00006362   0x00000004   Code   RO         3051    x$fpl$printf1       fz_wm.l(printf1.o)
    0x00006366   0x00000000   Code   RO         3073    x$fpl$usenofp       fz_wm.l(usenofp.o)
    0x00006366   0x00000002   PAD
    0x00006368   0x0000000a   Data   RO          292    .constdata          statuspac.o
    0x00006372   0x00000002   PAD
    0x00006374   0x0000000a   Data   RO          339    .constdata          sendbytesstatus.o
    0x0000637e   0x00000002   PAD
    0x00006380   0x0000000a   Data   RO          523    .constdata          capturestation.o
    0x0000638a   0x00000002   PAD
    0x0000638c   0x0000000a   Data   RO          560    .constdata          campaigning.o
    0x00006396   0x00000002   PAD
    0x00006398   0x00000030   Data   RO          596    .constdata          admulti.o
    0x000063c8   0x00000064   Data   RO          653    .constdata          pwm10tiva.o
    0x0000642c   0x0000000a   Data   RO          729    .constdata          activateshooter.o
    0x00006436   0x00000002   PAD
    0x00006438   0x0000000a   Data   RO          847    .constdata          followline.o
    0x00006442   0x00000002   PAD
    0x00006444   0x00000004   Data   RO          959    .constdata          es_checkevents.o
    0x00006448   0x00000070   Data   RO          997    .constdata          es_framework.o
    0x000064b8   0x00000020   Data   RO         1037    .constdata          es_lookuptables.o
    0x000064d8   0x0000000f   Data   RO         1038    .constdata          es_lookuptables.o
    0x000064e7   0x00000001   PAD
    0x000064e8   0x00000040   Data   RO         1173    .constdata          es_timers.o
    0x00006528   0x0000001c   Data   RO         1319    .constdata          uartstdio.o
    0x00006544   0x00000210   Data   RO         1411    .constdata          driverlib.lib(gpio.o)
    0x00006754   0x0000010c   Data   RO         1696    .constdata          driverlib.lib(interrupt.o)
    0x00006860   0x000001c4   Data   RO         2083    .constdata          driverlib.lib(sysctl.o)
    0x00006a24   0x00000011   Data   RO         3007    .constdata          c_w.l(__printf_flags_wp.o)
    0x00006a35   0x00000003   PAD
    0x00006a38   0x00000094   Data   RO         3101    .constdata          c_w.l(bigflt0.o)
    0x00006acc   0x00000011   Data   RO         1320    .conststring        uartstdio.o
    0x00006add   0x00000003   PAD
    0x00006ae0   0x00000020   Data   RO         3267    Region$$Table       anon$$obj.o
    0x00006b00   0x0000001c   Data   RO         3125    locale$$data        c_w.l(lc_numeric_c.o)


    Execution Region RW_IRAM1 (Base: 0x20000000, Size: 0x00000d28, Max: 0x00008000, ABSOLUTE, COMPRESSED[0x00000038])

    Base Addr    Size         Type   Attr      Idx    E Section Name        Object

    0x20000000   0x00000003   Data   RW          129    .data               testharnessservice0.o
    0x20000003   0x00000002   Data   RW          177    .data               es_shorttimer.o
    0x20000005   0x00000003   PAD
    0x20000008   0x0000002d   Data   RW          222    .data               strategy.o
    0x20000035   0x00000003   Data   RW          293    .data               statuspac.o
    0x20000038   0x00000017   Data   RW          340    .data               sendbytesstatus.o
    0x2000004f   0x00000001   PAD
    0x20000050   0x0000003c   Data   RW          400    .data               init_all.o
    0x2000008c   0x00000001   Data   RW          524    .data               capturestation.o
    0x2000008d   0x00000002   Data   RW          561    .data               campaigning.o
    0x2000008f   0x00000001   Data   RW          597    .data               admulti.o
    0x20000090   0x00000002   Data   RW          654    .data               pwm10tiva.o
    0x20000092   0x00000008   Data   RW          730    .data               activateshooter.o
    0x2000009a   0x00000004   Data   RW          756    .data               cannon.o
    0x2000009e   0x00000002   PAD
    0x200000a0   0x00000018   Data   RW          789    .data               camera.o
    0x200000b8   0x00000044   Data   RW          848    .data               followline.o
    0x200000fc   0x00000014   Data   RW          886    .data               ultrasonic.o
    0x20000110   0x00000002   Data   RW          998    .data               es_framework.o
    0x20000112   0x00000004   Data   RW         1057    .data               es_port.o
    0x20000116   0x00000002   PAD
    0x20000118   0x00000004   Data   RW         1128    .data               es_queue.o
    0x2000011c   0x00000006   Data   RW         1174    .data               es_timers.o
    0x20000122   0x00000002   PAD
    0x20000124   0x00000004   Data   RW         1222    .data               retarget.o
    0x20000128   0x00000004   Data   RW         1223    .data               retarget.o
    0x2000012c   0x00000008   Data   RW         1321    .data               uartstdio.o
    0x20000134   0x00000028   Zero   RW          128    .bss                testharnessservice0.o
    0x2000015c   0x00000040   Zero   RW          398    .bss                init_all.o
    0x2000019c   0x00000020   Zero   RW          652    .bss                pwm10tiva.o
    0x200001bc   0x00000180   Zero   RW          788    .bss                camera.o
    0x2000033c   0x00000028   Zero   RW          846    .bss                followline.o
    0x20000364   0x0000000a   Zero   RW          989    .bss                es_framework.o
    0x2000036e   0x0000003c   Zero   RW          990    .bss                es_framework.o
    0x200003aa   0x00000028   Zero   RW          991    .bss                es_framework.o
    0x200003d2   0x00000028   Zero   RW          992    .bss                es_framework.o
    0x200003fa   0x00000028   Zero   RW          993    .bss                es_framework.o
    0x20000422   0x00000028   Zero   RW          994    .bss                es_framework.o
    0x2000044a   0x00000028   Zero   RW          995    .bss                es_framework.o
    0x20000472   0x00000028   Zero   RW          996    .bss                es_framework.o
    0x2000049a   0x0000002a   Zero   RW         1172    .bss                es_timers.o
    0x200004c4   0x00000060   Zero   RW         3133    .bss                c_w.l(libspace.o)
    0x20000524   0x00000004   PAD
    0x20000528   0x00000000   Zero   RW          950    HEAP                startup_rvmdk.o
    0x20000528   0x00000800   Zero   RW          949    STACK               startup_rvmdk.o


==============================================================================

Image component sizes


      Code (inc. data)   RO Data    RW Data    ZI Data      Debug   Object Name

       524         16         10          8          0       4520   activateshooter.o
       256         40         48          1          0       2228   admulti.o
      1204        114          0         24        384       9391   camera.o
       740         30         10          2          0       6410   campaigning.o
       220         20          0          4          0       3350   cannon.o
       526         24         10          1          0       5279   capturestation.o
        40          6          4          0          0       1405   es_checkevents.o
        46          0          0          0          0       1250   es_deferrecall.o
       308         48        112          2        310       4331   es_framework.o
        52          4         47          0          0       1598   es_lookuptables.o
       100         16          0          4          0       4633   es_port.o
       292         16          0          4          0       3898   es_queue.o
       268         42          0          2          0       3119   es_shorttimer.o
       188         32         64          6         42       3365   es_timers.o
        80          4          0          0          0       3266   eventcheckers.o
      1722        226         10         68         40       6626   followline.o
      1832        268          0         60         64      13820   init_all.o
       464        356          0          0          0      11435   main.o
       118         16          0          0          0       3084   motordrive.o
      1040        142        100          2         32       4511   pwm10tiva.o
        26          0          0          8          0       4163   retarget.o
       670         22         10         23          0       6624   sendbytesstatus.o
        30          0          0          0          0       1923   servo.o
       672        636          0          0       2048        684   startup_rvmdk.o
       420         38         10          3          0       5565   statuspac.o
      2824        476          0         45          0      11239   strategy.o
       116         26          0          0          0       2248   termio.o
       692        300          0          3         40       2947   testharnessservice0.o
       116         14         45          8          0       3264   uartstdio.o
       568        118          0         20          0       5797   ultrasonic.o

    ----------------------------------------------------------------------
     16172       3050        528        308       2960     141973   Object Totals
         0          0         32          0          0          0   (incl. Generated)
        18          0         16         10          0          0   (incl. Padding)

    ----------------------------------------------------------------------

      Code (inc. data)   RO Data    RW Data    ZI Data      Debug   Library Member Name

        58          0          0          0          0          0   __dczerorl.o
         8          0          0          0          0         68   __main.o
       312          4         17          0          0         92   __printf_flags_wp.o
        14          0          0          0          0         68   __printf_wp.o
         0          0          0          0          0          0   __rtentry.o
        12          0          0          0          0          0   __rtentry2.o
         6          0          0          0          0          0   __rtentry4.o
        52          8          0          0          0          0   __scatter.o
        28          0          0          0          0          0   __scatter_zi.o
         6          0          0          0          0          0   _printf_c.o
        44          0          0          0          0        108   _printf_char.o
        48          6          0          0          0         96   _printf_char_common.o
        36          4          0          0          0         80   _printf_char_file.o
         6          0          0          0          0          0   _printf_d.o
       120         16          0          0          0         92   _printf_dec.o
         6          0          0          0          0          0   _printf_f.o
      1050          0          0          0          0        216   _printf_fp_dec.o
       128         16          0          0          0         84   _printf_fp_infnan.o
       178          0          0          0          0         88   _printf_intcommon.o
         0          0          0          0          0          0   _printf_percent.o
         4          0          0          0          0          0   _printf_percent_end.o
         6          0          0          0          0          0   _printf_s.o
        82          0          0          0          0         80   _printf_str.o
       220          4        148          0          0         96   bigflt0.o
      1910        128          0          0          0        672   btod.o
        18          0          0          0          0         80   exit.o
         4          0          0          0          0         68   getc.o
         6          0          0          0          0        152   heapauxi.o
        44         10         28          0          0         76   lc_numeric_c.o
         2          0          0          0          0          0   libinit.o
        22          0          0          0          0          0   libinit2.o
         2          0          0          0          0          0   libshutdown.o
         2          0          0          0          0          0   libshutdown2.o
         8          4          0          0         96         68   libspace.o
       138          0          0          0          0         80   lludiv10.o
        24          4          0          0          0         84   noretval__2printf.o
        44          4          0          0          0         84   puts.o
         8          4          0          0          0         68   rt_locale_intlibspace.o
         2          0          0          0          0          0   rtexit.o
        10          0          0          0          0          0   rtexit2.o
       128          0          0          0          0         68   strcmpv7m.o
        74          0          0          0          0         80   sys_stackheap_outer.o
         2          0          0          0          0         68   use_no_semi.o
        38          0          0          0          0        572   cpu.o
       510          8        528          0          0       8201   gpio.o
       114          8        268          0          0       2042   interrupt.o
       118          0          0          0          0       3119   pwm.o
       738         68        452          0          0       5335   sysctl.o
        38          0          0          0          0       1410   systick.o
       158          8          0          0          0       3122   timer.o
        18          0          0          0          0        999   uart.o
        98          4          0          0          0        140   d2f.o
       826         16          0          0          0        492   daddsub_clz.o
        24          0          0          0          0        116   dcmpi.o
       688        140          0          0          0        256   ddiv.o
        84          0          0          0          0        232   dflt_clz.o
       120          4          0          0          0        140   dleqf.o
       340         12          0          0          0        152   dmul.o
       156          4          0          0          0        140   dnaninf.o
        12          0          0          0          0        116   dretinf.o
        86          4          0          0          0        132   f2d.o
       140          4          0          0          0        132   fnaninf.o
        10          0          0          0          0        116   fpinit.o
        10          0          0          0          0        116   fretinf.o
         4          0          0          0          0        116   printf1.o
         0          0          0          0          0          0   usenofp.o
        48          0          0          0          0        124   fpclassify.o

    ----------------------------------------------------------------------
      9276        492       1444          0        100      30136   Library Totals
        26          0          3          0          4          0   (incl. Padding)

    ----------------------------------------------------------------------

      Code (inc. data)   RO Data    RW Data    ZI Data      Debug   Library Name

      4872        212        193          0         96       2816   c_w.l
      1732         92       1248          0          0      24800   driverlib.lib
      2598        188          0          0          0       2396   fz_wm.l
        48          0          0          0          0        124   m_wm.l

    ----------------------------------------------------------------------
      9276        492       1444          0        100      30136   Library Totals

    ----------------------------------------------------------------------

==============================================================================


      Code (inc. data)   RO Data    RW Data    ZI Data      Debug   

     25448       3542       1972        308       3060     154801   Grand Totals
     25448       3542       1972         56       3060     154801   ELF Image Totals (compressed)
     25448       3542       1972         56          0          0   ROM Totals

==============================================================================

    Total RO  Size (Code + RO Data)                27420 (  26.78kB)
    Total RW  Size (RW Data + ZI Data)              3368 (   3.29kB)
    Total ROM Size (Code + RO Data + RW Data)      27476 (  26.83kB)

==============================================================================

